---
triple:          'arm64-apple-darwin'
binary-path:     '/Users/nathanm/Desktop/ascii-game/build/main'
relocations:
  - { offsetInCU: 0x6848, offset: 0x6848, size: 0x8, addend: 0x0, symName: __ZNSt3__124__put_character_sequenceB8ue170006IcNS_11char_traitsIcEEEERNS_13basic_ostreamIT_T0_EES7_PKS4_m, symObjAddr: 0x1B7C, symBinAddr: 0x1000051C0, symSize: 0x1F4 }
  - { offsetInCU: 0x9132, offset: 0x9132, size: 0x8, addend: 0x0, symName: __ZNSt3__1neB8ue170006IPK6EntityEEbRKNS_11__wrap_iterIT_EES8_, symObjAddr: 0x2E4, symBinAddr: 0x100003928, symSize: 0x34 }
  - { offsetInCU: 0x9175, offset: 0x9175, size: 0x8, addend: 0x0, symName: __ZNSt3__1neB8ue170006IPNS_6vectorIcNS_9allocatorIcEEEEEEbRKNS_11__wrap_iterIT_EESA_, symObjAddr: 0x400, symBinAddr: 0x100003A44, symSize: 0x34 }
  - { offsetInCU: 0x91B8, offset: 0x91B8, size: 0x8, addend: 0x0, symName: __ZNSt3__1neB8ue170006IPKcEEbRKNS_11__wrap_iterIT_EES7_, symObjAddr: 0x4AC, symBinAddr: 0x100003AF0, symSize: 0x34 }
  - { offsetInCU: 0x91FB, offset: 0x91FB, size: 0x8, addend: 0x0, symName: __ZNSt3__1lsB8ue170006INS_11char_traitsIcEEEERNS_13basic_ostreamIcT_EES6_c, symObjAddr: 0x4F8, symBinAddr: 0x100003B3C, symSize: 0x34 }
  - { offsetInCU: 0x9241, offset: 0x9241, size: 0x8, addend: 0x0, symName: __ZNSt3__14endlB8ue170006IcNS_11char_traitsIcEEEERNS_13basic_ostreamIT_T0_EES7_, symObjAddr: 0x578, symBinAddr: 0x100003BBC, symSize: 0x58 }
  - { offsetInCU: 0x929D, offset: 0x929D, size: 0x8, addend: 0x0, symName: __ZNSt3__1lsB8ue170006INS_11char_traitsIcEEEERNS_13basic_ostreamIcT_EES6_PKc, symObjAddr: 0x1214, symBinAddr: 0x100004858, symSize: 0x48 }
  - { offsetInCU: 0x92E3, offset: 0x92E3, size: 0x8, addend: 0x0, symName: __ZNSt3__130__libcpp_is_constant_evaluatedB8ue170006Ev, symObjAddr: 0x1514, symBinAddr: 0x100004B58, symSize: 0xC }
  - { offsetInCU: 0x9300, offset: 0x9300, size: 0x8, addend: 0x0, symName: __ZNSt3__117__libcpp_allocateB8ue170006Emm, symObjAddr: 0x180C, symBinAddr: 0x100004E50, symSize: 0x28 }
  - { offsetInCU: 0x933D, offset: 0x933D, size: 0x8, addend: 0x0, symName: __ZNSt3__121__libcpp_operator_newB8ue170006IJmEEEPvDpT_, symObjAddr: 0x1848, symBinAddr: 0x100004E8C, symSize: 0x24 }
  - { offsetInCU: 0x9376, offset: 0x9376, size: 0x8, addend: 0x0, symName: __ZNSt3__1eqB8ue170006IPK6EntityEEbRKNS_11__wrap_iterIT_EES8_, symObjAddr: 0x1954, symBinAddr: 0x100004F98, symSize: 0x48 }
  - { offsetInCU: 0x93B9, offset: 0x93B9, size: 0x8, addend: 0x0, symName: __ZNSt3__1eqB8ue170006IPNS_6vectorIcNS_9allocatorIcEEEEEEbRKNS_11__wrap_iterIT_EESA_, symObjAddr: 0x1A38, symBinAddr: 0x10000507C, symSize: 0x48 }
  - { offsetInCU: 0x93FC, offset: 0x93FC, size: 0x8, addend: 0x0, symName: __ZNSt3__1eqB8ue170006IPKcEEbRKNS_11__wrap_iterIT_EES7_, symObjAddr: 0x1B1C, symBinAddr: 0x100005160, symSize: 0x48 }
  - { offsetInCU: 0x943F, offset: 0x943F, size: 0x8, addend: 0x0, symName: __ZNSt3__116__pad_and_outputB8ue170006IcNS_11char_traitsIcEEEENS_19ostreambuf_iteratorIT_T0_EES6_PKS4_S8_S8_RNS_8ios_baseES4_, symObjAddr: 0x1D8C, symBinAddr: 0x1000053D0, symSize: 0x248 }
  - { offsetInCU: 0x950E, offset: 0x950E, size: 0x8, addend: 0x0, symName: __ZNSt3__112__to_addressB8ue170006IKcEEPT_S3_, symObjAddr: 0x2204, symBinAddr: 0x100005848, symSize: 0x14 }
  - { offsetInCU: 0x9576, offset: 0x9576, size: 0x8, addend: 0x0, symName: __ZNSt3__19use_facetB8ue170006INS_5ctypeIcEEEERKT_RKNS_6localeE, symObjAddr: 0x24DC, symBinAddr: 0x100005B20, symSize: 0x2C }
  - { offsetInCU: 0x9A43, offset: 0x9A43, size: 0x8, addend: 0x0, symName: __ZNSt3__122__make_exception_guardB8ue170006INS_6vectorIcNS_9allocatorIcEEE16__destroy_vectorEEENS_28__exception_guard_exceptionsIT_EES7_, symObjAddr: 0x2694, symBinAddr: 0x100005CD8, symSize: 0x40 }
  - { offsetInCU: 0x9A78, offset: 0x9A78, size: 0x8, addend: 0x0, symName: __ZNSt3__119__allocate_at_leastB8ue170006INS_9allocatorIcEEEENS_19__allocation_resultINS_16allocator_traitsIT_E7pointerEEERS5_m, symObjAddr: 0x2A38, symBinAddr: 0x10000607C, symSize: 0x40 }
  - { offsetInCU: 0x9ABB, offset: 0x9ABB, size: 0x8, addend: 0x0, symName: __ZNSt3__13minB8ue170006ImEERKT_S3_S3_, symObjAddr: 0x2B74, symBinAddr: 0x1000061B8, symSize: 0x2C }
  - { offsetInCU: 0x9CFF, offset: 0x9CFF, size: 0x8, addend: 0x0, symName: __ZNSt3__13minB8ue170006ImNS_6__lessIvvEEEERKT_S5_S5_T0_, symObjAddr: 0x2BDC, symBinAddr: 0x100006220, symSize: 0x54 }
  - { offsetInCU: 0x9D9E, offset: 0x9D9E, size: 0x8, addend: 0x0, symName: __ZNSt3__120__throw_length_errorB8ue170006EPKc, symObjAddr: 0x2CA4, symBinAddr: 0x1000062E8, symSize: 0x64 }
  - { offsetInCU: 0x9DC8, offset: 0x9DC8, size: 0x8, addend: 0x0, symName: __ZNSt3__112__to_addressB8ue170006IcEEPT_S2_, symObjAddr: 0x2E64, symBinAddr: 0x1000064A8, symSize: 0x14 }
  - { offsetInCU: 0x9DFD, offset: 0x9DFD, size: 0x8, addend: 0x0, symName: __ZNSt3__119__libcpp_deallocateB8ue170006EPvmm, symObjAddr: 0x335C, symBinAddr: 0x1000069A0, symSize: 0x30 }
  - { offsetInCU: 0x9E45, offset: 0x9E45, size: 0x8, addend: 0x0, symName: __ZNSt3__127__do_deallocate_handle_sizeB8ue170006IJEEEvPvmDpT_, symObjAddr: 0x338C, symBinAddr: 0x1000069D0, symSize: 0x28 }
  - { offsetInCU: 0x9E83, offset: 0x9E83, size: 0x8, addend: 0x0, symName: __ZNSt3__124__libcpp_operator_deleteB8ue170006IJPvEEEvDpT_, symObjAddr: 0x33B4, symBinAddr: 0x1000069F8, symSize: 0x24 }
  - { offsetInCU: 0x9EB8, offset: 0x9EB8, size: 0x8, addend: 0x0, symName: __ZNSt3__122__make_exception_guardB8ue170006INS_6vectorINS1_IcNS_9allocatorIcEEEENS2_IS4_EEE16__destroy_vectorEEENS_28__exception_guard_exceptionsIT_EES9_, symObjAddr: 0x3534, symBinAddr: 0x100006B78, symSize: 0x40 }
  - { offsetInCU: 0x9EED, offset: 0x9EED, size: 0x8, addend: 0x0, symName: __ZNSt3__119__allocate_at_leastB8ue170006INS_9allocatorINS_6vectorIcNS1_IcEEEEEEEENS_19__allocation_resultINS_16allocator_traitsIT_E7pointerEEERS8_m, symObjAddr: 0x394C, symBinAddr: 0x100006F90, symSize: 0x40 }
  - { offsetInCU: 0x9F30, offset: 0x9F30, size: 0x8, addend: 0x0, symName: __ZNSt3__112__to_addressB8ue170006INS_6vectorIcNS_9allocatorIcEEEEEEPT_S6_, symObjAddr: 0x3CC4, symBinAddr: 0x100007308, symSize: 0x14 }
  - { offsetInCU: 0x9F65, offset: 0x9F65, size: 0x8, addend: 0x0, symName: __ZNSt3__130__uninitialized_allocator_copyB8ue170006INS_9allocatorIcEEPcS3_S3_EET2_RT_T0_T1_S4_, symObjAddr: 0x4114, symBinAddr: 0x100007758, symSize: 0x80 }
  - { offsetInCU: 0xA002, offset: 0xA002, size: 0x8, addend: 0x0, symName: __ZNSt3__114__unwrap_rangeB8ue170006IPcS1_EENS_4pairIT0_S3_EET_S5_, symObjAddr: 0x4194, symBinAddr: 0x1000077D8, symSize: 0x60 }
  - { offsetInCU: 0xA04E, offset: 0xA04E, size: 0x8, addend: 0x0, symName: __ZNSt3__135__uninitialized_allocator_copy_implB8ue170006INS_9allocatorIcEEPcS3_S3_EET2_RT_T0_T1_S4_, symObjAddr: 0x41F4, symBinAddr: 0x100007838, symSize: 0xFC }
  - { offsetInCU: 0xA0EC, offset: 0xA0EC, size: 0x8, addend: 0x0, symName: __ZNSt3__113__unwrap_iterB8ue170006IPcNS_18__unwrap_iter_implIS1_Lb1EEELi0EEEDTclsrT0_8__unwrapclsr3stdE7declvalIT_EEEES5_, symObjAddr: 0x42F0, symBinAddr: 0x100007934, symSize: 0x24 }
  - { offsetInCU: 0xA130, offset: 0xA130, size: 0x8, addend: 0x0, symName: __ZNSt3__113__rewrap_iterB8ue170006IPcS1_NS_18__unwrap_iter_implIS1_Lb1EEEEET_S4_T0_, symObjAddr: 0x4314, symBinAddr: 0x100007958, symSize: 0x50 }
  - { offsetInCU: 0xA185, offset: 0xA185, size: 0x8, addend: 0x0, symName: __ZNSt3__19make_pairB8ue170006IPcS1_EENS_4pairINS_18__unwrap_ref_decayIT_E4typeENS3_IT0_E4typeEEEOS4_OS7_, symObjAddr: 0x4364, symBinAddr: 0x1000079A8, symSize: 0x38 }
  - { offsetInCU: 0xA281, offset: 0xA281, size: 0x8, addend: 0x0, symName: __ZNSt3__122__make_exception_guardB8ue170006INS_29_AllocatorDestroyRangeReverseINS_9allocatorIcEEPcEEEENS_28__exception_guard_exceptionsIT_EES7_, symObjAddr: 0x440C, symBinAddr: 0x100007A50, symSize: 0x4C }
  - { offsetInCU: 0xA2B7, offset: 0xA2B7, size: 0x8, addend: 0x0, symName: __ZNSt3__119__allocator_destroyB8ue170006INS_9allocatorIcEENS_16reverse_iteratorIPcEES5_EEvRT_T0_T1_, symObjAddr: 0x468C, symBinAddr: 0x100007CD0, symSize: 0x70 }
  - { offsetInCU: 0xA31A, offset: 0xA31A, size: 0x8, addend: 0x0, symName: __ZNSt3__1neB8ue170006IPcS1_EEbRKNS_16reverse_iteratorIT_EERKNS2_IT0_EE, symObjAddr: 0x4730, symBinAddr: 0x100007D74, symSize: 0x48 }
  - { offsetInCU: 0xA366, offset: 0xA366, size: 0x8, addend: 0x0, symName: __ZNSt3__112__to_addressB8ue170006INS_16reverse_iteratorIPcEEvEEu7__decayIDTclsr19__to_address_helperIT_EE6__callclsr3stdE7declvalIRKS4_EEEEES6_, symObjAddr: 0x4778, symBinAddr: 0x100007DBC, symSize: 0x24 }
  - { offsetInCU: 0xA418, offset: 0xA418, size: 0x8, addend: 0x0, symName: __ZNSt3__112__to_addressB8ue170006I6EntityEEPT_S3_, symObjAddr: 0x51C0, symBinAddr: 0x100008804, symSize: 0x14 }
  - { offsetInCU: 0xA44D, offset: 0xA44D, size: 0x8, addend: 0x0, symName: __ZNSt3__1miB8ue170006IPK6EntityPS1_EENS_11__wrap_iterIT_E15difference_typeERKS7_RKNS5_IT0_EE, symObjAddr: 0x53FC, symBinAddr: 0x100008A40, symSize: 0x48 }
  - { offsetInCU: 0xA4CC, offset: 0xA4CC, size: 0x8, addend: 0x0, symName: __ZNSt3__113move_backwardB8ue170006IP6EntityS2_EET0_T_S4_S3_, symObjAddr: 0x5DBC, symBinAddr: 0x100009400, symSize: 0x40 }
  - { offsetInCU: 0xA526, offset: 0xA526, size: 0x8, addend: 0x0, symName: __ZNSt3__115__move_backwardB8ue170006INS_17_ClassicAlgPolicyEP6EntityS3_S3_EENS_4pairIT0_T2_EES5_T1_S6_, symObjAddr: 0x5E2C, symBinAddr: 0x100009470, symSize: 0x44 }
  - { offsetInCU: 0xA592, offset: 0xA592, size: 0x8, addend: 0x0, symName: __ZNSt3__123__dispatch_copy_or_moveB8ue170006INS_17_ClassicAlgPolicyENS_20__move_backward_loopIS1_EENS_23__move_backward_trivialEP6EntityS6_S6_EENS_4pairIT2_T4_EES8_T3_S9_, symObjAddr: 0x5E70, symBinAddr: 0x1000094B4, symSize: 0x44 }
  - { offsetInCU: 0xA610, offset: 0xA610, size: 0x8, addend: 0x0, symName: __ZNSt3__121__unwrap_and_dispatchB8ue170006INS_10__overloadINS_20__move_backward_loopINS_17_ClassicAlgPolicyEEENS_23__move_backward_trivialEEEP6EntityS8_S8_Li0EEENS_4pairIT0_T2_EESA_T1_SB_, symObjAddr: 0x5EB4, symBinAddr: 0x1000094F8, symSize: 0xB4 }
  - { offsetInCU: 0xA69E, offset: 0xA69E, size: 0x8, addend: 0x0, symName: __ZNSt3__114__unwrap_rangeB8ue170006IP6EntityS2_EENS_4pairIT0_S4_EET_S6_, symObjAddr: 0x5F68, symBinAddr: 0x1000095AC, symSize: 0x60 }
  - { offsetInCU: 0xA7F2, offset: 0xA7F2, size: 0x8, addend: 0x0, symName: __ZNSt3__113__unwrap_iterB8ue170006IP6EntityNS_18__unwrap_iter_implIS2_Lb1EEELi0EEEDTclsrT0_8__unwrapclsr3stdE7declvalIT_EEEES6_, symObjAddr: 0x606C, symBinAddr: 0x1000096B0, symSize: 0x24 }
  - { offsetInCU: 0xA836, offset: 0xA836, size: 0x8, addend: 0x0, symName: __ZNSt3__19make_pairB8ue170006IP6EntityS2_EENS_4pairINS_18__unwrap_ref_decayIT_E4typeENS4_IT0_E4typeEEEOS5_OS8_, symObjAddr: 0x6090, symBinAddr: 0x1000096D4, symSize: 0x38 }
  - { offsetInCU: 0xA885, offset: 0xA885, size: 0x8, addend: 0x0, symName: __ZNSt3__114__rewrap_rangeB8ue170006IP6EntityS2_EET_S3_T0_, symObjAddr: 0x60C8, symBinAddr: 0x10000970C, symSize: 0x2C }
  - { offsetInCU: 0xA8D1, offset: 0xA8D1, size: 0x8, addend: 0x0, symName: __ZNSt3__113__rewrap_iterB8ue170006IP6EntityS2_NS_18__unwrap_iter_implIS2_Lb1EEEEET_S5_T0_, symObjAddr: 0x60F4, symBinAddr: 0x100009738, symSize: 0x50 }
  - { offsetInCU: 0xAA06, offset: 0xAA06, size: 0x8, addend: 0x0, symName: __ZNSt3__13maxB8ue170006ImEERKT_S3_S3_, symObjAddr: 0x6304, symBinAddr: 0x100009948, symSize: 0x2C }
  - { offsetInCU: 0xAA49, offset: 0xAA49, size: 0x8, addend: 0x0, symName: __ZNSt3__13maxB8ue170006ImNS_6__lessIvvEEEERKT_S5_S5_T0_, symObjAddr: 0x63CC, symBinAddr: 0x100009A10, symSize: 0x54 }
  - { offsetInCU: 0xAAA3, offset: 0xAAA3, size: 0x8, addend: 0x0, symName: __ZNSt3__119__allocate_at_leastB8ue170006INS_9allocatorI6EntityEEEENS_19__allocation_resultINS_16allocator_traitsIT_E7pointerEEERS6_m, symObjAddr: 0x653C, symBinAddr: 0x100009B80, symSize: 0x40 }
  - { offsetInCU: 0xAAE6, offset: 0xAAE6, size: 0x8, addend: 0x0, symName: __ZNSt3__14moveB8ue170006IP6EntityS2_EET0_T_S4_S3_, symObjAddr: 0x6724, symBinAddr: 0x100009D68, symSize: 0x40 }
  - { offsetInCU: 0xAB40, offset: 0xAB40, size: 0x8, addend: 0x0, symName: __ZNSt3__14swapB8ue170006IP6EntityEEvRT_S4_, symObjAddr: 0x67F8, symBinAddr: 0x100009E3C, symSize: 0x3C }
  - { offsetInCU: 0xAB91, offset: 0xAB91, size: 0x8, addend: 0x0, symName: __ZNSt3__16__moveB8ue170006INS_17_ClassicAlgPolicyEP6EntityS3_S3_EENS_4pairIT0_T2_EES5_T1_S6_, symObjAddr: 0x6834, symBinAddr: 0x100009E78, symSize: 0x44 }
  - { offsetInCU: 0xABFD, offset: 0xABFD, size: 0x8, addend: 0x0, symName: __ZNSt3__123__dispatch_copy_or_moveB8ue170006INS_17_ClassicAlgPolicyENS_11__move_loopIS1_EENS_14__move_trivialEP6EntityS6_S6_EENS_4pairIT2_T4_EES8_T3_S9_, symObjAddr: 0x6878, symBinAddr: 0x100009EBC, symSize: 0x44 }
  - { offsetInCU: 0xAC7B, offset: 0xAC7B, size: 0x8, addend: 0x0, symName: __ZNSt3__121__unwrap_and_dispatchB8ue170006INS_10__overloadINS_11__move_loopINS_17_ClassicAlgPolicyEEENS_14__move_trivialEEEP6EntityS8_S8_Li0EEENS_4pairIT0_T2_EESA_T1_SB_, symObjAddr: 0x68BC, symBinAddr: 0x100009F00, symSize: 0xB4 }
  - { offsetInCU: 0xAD5B, offset: 0xAD5B, size: 0x8, addend: 0x0, symName: __ZNSt3__18distanceB8ue170006INS_13move_iteratorIP6EntityEEEENS_15iterator_traitsIT_E15difference_typeES6_S6_, symObjAddr: 0x6AE4, symBinAddr: 0x10000A128, symSize: 0x3C }
  - { offsetInCU: 0xAD9E, offset: 0xAD9E, size: 0x8, addend: 0x0, symName: __ZNSt3__110__distanceB8ue170006INS_13move_iteratorIP6EntityEEEENS_15iterator_traitsIT_E15difference_typeES6_S6_NS_26random_access_iterator_tagE, symObjAddr: 0x6C2C, symBinAddr: 0x10000A270, symSize: 0x30 }
  - { offsetInCU: 0xADEB, offset: 0xADEB, size: 0x8, addend: 0x0, symName: __ZNSt3__1miB8ue170006IP6EntityS2_EENS_13move_iteratorIT_E15difference_typeERKS5_RKNS3_IT0_EE, symObjAddr: 0x6C5C, symBinAddr: 0x10000A2A0, symSize: 0x48 }
  - { offsetInCU: 0xAE3A, offset: 0xAE3A, size: 0x8, addend: 0x0, symName: __ZNSt3__142__uninitialized_allocator_move_if_noexceptB8ue170006INS_9allocatorI6EntityEENS_16reverse_iteratorIPS2_EES6_S6_EET2_RT_T0_T1_S7_, symObjAddr: 0x6CDC, symBinAddr: 0x10000A320, symSize: 0x134 }
  - { offsetInCU: 0xAEDA, offset: 0xAEDA, size: 0x8, addend: 0x0, symName: __ZNSt3__142__uninitialized_allocator_move_if_noexceptB8ue170006INS_9allocatorI6EntityEEPS2_S4_S4_EET2_RT_T0_T1_S5_, symObjAddr: 0x6E5C, symBinAddr: 0x10000A4A0, symSize: 0xFC }
  - { offsetInCU: 0xAF78, offset: 0xAF78, size: 0x8, addend: 0x0, symName: __ZNSt3__122__make_exception_guardB8ue170006INS_29_AllocatorDestroyRangeReverseINS_9allocatorI6EntityEENS_16reverse_iteratorIPS3_EEEEEENS_28__exception_guard_exceptionsIT_EESA_, symObjAddr: 0x7020, symBinAddr: 0x10000A664, symSize: 0x4C }
  - { offsetInCU: 0xAFAE, offset: 0xAFAE, size: 0x8, addend: 0x0, symName: __ZNSt3__1neB8ue170006IP6EntityS2_EEbRKNS_16reverse_iteratorIT_EERKNS3_IT0_EE, symObjAddr: 0x70B0, symBinAddr: 0x10000A6F4, symSize: 0x48 }
  - { offsetInCU: 0xAFFA, offset: 0xAFFA, size: 0x8, addend: 0x0, symName: __ZNSt3__112__to_addressB8ue170006INS_16reverse_iteratorIP6EntityEEvEEu7__decayIDTclsr19__to_address_helperIT_EE6__callclsr3stdE7declvalIRKS5_EEEEES7_, symObjAddr: 0x70F8, symBinAddr: 0x10000A73C, symSize: 0x24 }
  - { offsetInCU: 0xB059, offset: 0xB059, size: 0x8, addend: 0x0, symName: __ZNSt3__119__allocator_destroyB8ue170006INS_9allocatorI6EntityEENS_16reverse_iteratorINS4_IPS2_EEEES7_EEvRT_T0_T1_, symObjAddr: 0x73B4, symBinAddr: 0x10000A9F8, symSize: 0x70 }
  - { offsetInCU: 0xB0BE, offset: 0xB0BE, size: 0x8, addend: 0x0, symName: __ZNSt3__1neB8ue170006INS_16reverse_iteratorIP6EntityEES4_EEbRKNS1_IT_EERKNS1_IT0_EE, symObjAddr: 0x7460, symBinAddr: 0x10000AAA4, symSize: 0x60 }
  - { offsetInCU: 0xB10A, offset: 0xB10A, size: 0x8, addend: 0x0, symName: __ZNSt3__112__to_addressB8ue170006INS_16reverse_iteratorINS1_IP6EntityEEEEvEEu7__decayIDTclsr19__to_address_helperIT_EE6__callclsr3stdE7declvalIRKS6_EEEEES8_, symObjAddr: 0x74C0, symBinAddr: 0x10000AB04, symSize: 0x24 }
  - { offsetInCU: 0xB169, offset: 0xB169, size: 0x8, addend: 0x0, symName: __ZNSt3__122__make_exception_guardB8ue170006INS_29_AllocatorDestroyRangeReverseINS_9allocatorI6EntityEEPS3_EEEENS_28__exception_guard_exceptionsIT_EES8_, symObjAddr: 0x7650, symBinAddr: 0x10000AC94, symSize: 0x4C }
  - { offsetInCU: 0xB19F, offset: 0xB19F, size: 0x8, addend: 0x0, symName: __ZNSt3__119__allocator_destroyB8ue170006INS_9allocatorI6EntityEENS_16reverse_iteratorIPS2_EES6_EEvRT_T0_T1_, symObjAddr: 0x7874, symBinAddr: 0x10000AEB8, symSize: 0x70 }
  - { offsetInCU: 0xB202, offset: 0xB202, size: 0x8, addend: 0x0, symName: __ZNSt3__118__constexpr_strlenB8ue170006EPKc, symObjAddr: 0x7B60, symBinAddr: 0x10000B1A4, symSize: 0x24 }
  - { offsetInCU: 0xB4B9, offset: 0xB4B9, size: 0x8, addend: 0x0, symName: __ZSt28__throw_bad_array_new_lengthB8ue170006v, symObjAddr: 0x17D8, symBinAddr: 0x100004E1C, symSize: 0x34 }
  - { offsetInCU: 0xBDB9, offset: 0xBDB9, size: 0x8, addend: 0x0, symName: __ZNSt3__16vectorI6EntityNS_9allocatorIS1_EEE26__swap_out_circular_bufferERNS_14__split_bufferIS1_RS3_EEPS1_, symObjAddr: 0x5A0C, symBinAddr: 0x100009050, symSize: 0x14C }
  - { offsetInCU: 0xE1C5, offset: 0xE1C5, size: 0x8, addend: 0x0, symName: __Z10setRawModev, symObjAddr: 0x0, symBinAddr: 0x100003644, symSize: 0x80 }
  - { offsetInCU: 0xE1EE, offset: 0xE1EE, size: 0x8, addend: 0x0, symName: __Z9resetModev, symObjAddr: 0x80, symBinAddr: 0x1000036C4, symSize: 0x80 }
  - { offsetInCU: 0xE217, offset: 0xE217, size: 0x8, addend: 0x0, symName: __Z10DisplayMapRNSt3__16vectorINS0_IcNS_9allocatorIcEEEENS1_IS3_EEEERKNS0_I6EntityNS1_IS7_EEEE, symObjAddr: 0x100, symBinAddr: 0x100003744, symSize: 0x184 }
  - { offsetInCU: 0xE364, offset: 0xE364, size: 0x8, addend: 0x0, symName: __ZNKSt3__16vectorI6EntityNS_9allocatorIS1_EEE5beginB8ue170006Ev, symObjAddr: 0x284, symBinAddr: 0x1000038C8, symSize: 0x30 }
  - { offsetInCU: 0xE38A, offset: 0xE38A, size: 0x8, addend: 0x0, symName: __ZNKSt3__16vectorI6EntityNS_9allocatorIS1_EEE3endB8ue170006Ev, symObjAddr: 0x2B4, symBinAddr: 0x1000038F8, symSize: 0x30 }
  - { offsetInCU: 0xE3B1, offset: 0xE3B1, size: 0x8, addend: 0x0, symName: __ZNKSt3__111__wrap_iterIPK6EntityEdeB8ue170006Ev, symObjAddr: 0x318, symBinAddr: 0x10000395C, symSize: 0x18 }
  - { offsetInCU: 0xE3D6, offset: 0xE3D6, size: 0x8, addend: 0x0, symName: __ZNSt3__16vectorINS0_IcNS_9allocatorIcEEEENS1_IS3_EEEixB8ue170006Em, symObjAddr: 0x330, symBinAddr: 0x100003974, symSize: 0x2C }
  - { offsetInCU: 0xE40C, offset: 0xE40C, size: 0x8, addend: 0x0, symName: __ZNSt3__16vectorIcNS_9allocatorIcEEEixB8ue170006Em, symObjAddr: 0x35C, symBinAddr: 0x1000039A0, symSize: 0x24 }
  - { offsetInCU: 0xE442, offset: 0xE442, size: 0x8, addend: 0x0, symName: __ZNSt3__111__wrap_iterIPK6EntityEppB8ue170006Ev, symObjAddr: 0x380, symBinAddr: 0x1000039C4, symSize: 0x20 }
  - { offsetInCU: 0xE466, offset: 0xE466, size: 0x8, addend: 0x0, symName: __ZNSt3__16vectorINS0_IcNS_9allocatorIcEEEENS1_IS3_EEE5beginB8ue170006Ev, symObjAddr: 0x3A0, symBinAddr: 0x1000039E4, symSize: 0x30 }
  - { offsetInCU: 0xE48C, offset: 0xE48C, size: 0x8, addend: 0x0, symName: __ZNSt3__16vectorINS0_IcNS_9allocatorIcEEEENS1_IS3_EEE3endB8ue170006Ev, symObjAddr: 0x3D0, symBinAddr: 0x100003A14, symSize: 0x30 }
  - { offsetInCU: 0xE4B3, offset: 0xE4B3, size: 0x8, addend: 0x0, symName: __ZNKSt3__111__wrap_iterIPNS_6vectorIcNS_9allocatorIcEEEEEdeB8ue170006Ev, symObjAddr: 0x434, symBinAddr: 0x100003A78, symSize: 0x18 }
  - { offsetInCU: 0xE4D7, offset: 0xE4D7, size: 0x8, addend: 0x0, symName: __ZNKSt3__16vectorIcNS_9allocatorIcEEE5beginB8ue170006Ev, symObjAddr: 0x44C, symBinAddr: 0x100003A90, symSize: 0x30 }
  - { offsetInCU: 0xE4FD, offset: 0xE4FD, size: 0x8, addend: 0x0, symName: __ZNKSt3__16vectorIcNS_9allocatorIcEEE3endB8ue170006Ev, symObjAddr: 0x47C, symBinAddr: 0x100003AC0, symSize: 0x30 }
  - { offsetInCU: 0xE524, offset: 0xE524, size: 0x8, addend: 0x0, symName: __ZNKSt3__111__wrap_iterIPKcEdeB8ue170006Ev, symObjAddr: 0x4E0, symBinAddr: 0x100003B24, symSize: 0x18 }
  - { offsetInCU: 0xE549, offset: 0xE549, size: 0x8, addend: 0x0, symName: __ZNSt3__111__wrap_iterIPKcEppB8ue170006Ev, symObjAddr: 0x52C, symBinAddr: 0x100003B70, symSize: 0x20 }
  - { offsetInCU: 0xE56E, offset: 0xE56E, size: 0x8, addend: 0x0, symName: __ZNSt3__113basic_ostreamIcNS_11char_traitsIcEEElsB8ue170006EPFRS3_S4_E, symObjAddr: 0x54C, symBinAddr: 0x100003B90, symSize: 0x2C }
  - { offsetInCU: 0xE5A1, offset: 0xE5A1, size: 0x8, addend: 0x0, symName: __ZNSt3__111__wrap_iterIPNS_6vectorIcNS_9allocatorIcEEEEEppB8ue170006Ev, symObjAddr: 0x5D0, symBinAddr: 0x100003C14, symSize: 0x20 }
  - { offsetInCU: 0xE5C5, offset: 0xE5C5, size: 0x8, addend: 0x0, symName: __Z9CreateMapii, symObjAddr: 0x5F0, symBinAddr: 0x100003C34, symSize: 0x1D4 }
  - { offsetInCU: 0xE637, offset: 0xE637, size: 0x8, addend: 0x0, symName: __ZNSt3__16vectorIcNS_9allocatorIcEEEC1EmRKc, symObjAddr: 0x7C4, symBinAddr: 0x100003E08, symSize: 0x3C }
  - { offsetInCU: 0xE680, offset: 0xE680, size: 0x8, addend: 0x0, symName: __ZNSt3__16vectorINS0_IcNS_9allocatorIcEEEENS1_IS3_EEEC1EmRKS3_, symObjAddr: 0x800, symBinAddr: 0x100003E44, symSize: 0x3C }
  - { offsetInCU: 0xE6C9, offset: 0xE6C9, size: 0x8, addend: 0x0, symName: __ZNSt3__16vectorIcNS_9allocatorIcEEED1B8ue170006Ev, symObjAddr: 0x83C, symBinAddr: 0x100003E80, symSize: 0x2C }
  - { offsetInCU: 0xE6F2, offset: 0xE6F2, size: 0x8, addend: 0x0, symName: __ZNSt3__16vectorINS0_IcNS_9allocatorIcEEEENS1_IS3_EEED1B8ue170006Ev, symObjAddr: 0x874, symBinAddr: 0x100003EB8, symSize: 0x2C }
  - { offsetInCU: 0xE71A, offset: 0xE71A, size: 0x8, addend: 0x0, symName: __Z14nextIsObstacleRKNSt3__16vectorINS0_IcNS_9allocatorIcEEEENS1_IS3_EEEE5Point, symObjAddr: 0x8A0, symBinAddr: 0x100003EE4, symSize: 0x84 }
  - { offsetInCU: 0xE771, offset: 0xE771, size: 0x8, addend: 0x0, symName: __ZNKSt3__16vectorINS0_IcNS_9allocatorIcEEEENS1_IS3_EEEixB8ue170006Em, symObjAddr: 0x924, symBinAddr: 0x100003F68, symSize: 0x2C }
  - { offsetInCU: 0xE7A7, offset: 0xE7A7, size: 0x8, addend: 0x0, symName: __ZNKSt3__16vectorIcNS_9allocatorIcEEEixB8ue170006Em, symObjAddr: 0x950, symBinAddr: 0x100003F94, symSize: 0x24 }
  - { offsetInCU: 0xE7DD, offset: 0xE7DD, size: 0x8, addend: 0x0, symName: _main, symObjAddr: 0x974, symBinAddr: 0x100003FB8, symSize: 0x580 }
  - { offsetInCU: 0xE962, offset: 0xE962, size: 0x8, addend: 0x0, symName: __ZNSt3__16vectorI6EntityNS_9allocatorIS1_EEEC1B8ue170006Ev, symObjAddr: 0xEF4, symBinAddr: 0x100004538, symSize: 0x2C }
  - { offsetInCU: 0xE98B, offset: 0xE98B, size: 0x8, addend: 0x0, symName: __ZN6EntityC1Ev, symObjAddr: 0xF20, symBinAddr: 0x100004564, symSize: 0x2C }
  - { offsetInCU: 0xE9B5, offset: 0xE9B5, size: 0x8, addend: 0x0, symName: __ZNSt3__16vectorI6EntityNS_9allocatorIS1_EEE6insertENS_11__wrap_iterIPKS1_EERS6_, symObjAddr: 0xF4C, symBinAddr: 0x100004590, symSize: 0x210 }
  - { offsetInCU: 0xEA4B, offset: 0xEA4B, size: 0x8, addend: 0x0, symName: __ZNSt3__16vectorI6EntityNS_9allocatorIS1_EEE3endB8ue170006Ev, symObjAddr: 0x115C, symBinAddr: 0x1000047A0, symSize: 0x30 }
  - { offsetInCU: 0xEA7C, offset: 0xEA7C, size: 0x8, addend: 0x0, symName: __ZNSt3__111__wrap_iterIPK6EntityEC1B8ue170006IPS1_EERKNS0_IT_EEPNS_9enable_ifIXsr14is_convertibleIS7_S3_EE5valueEvE4typeE, symObjAddr: 0x118C, symBinAddr: 0x1000047D0, symSize: 0x3C }
  - { offsetInCU: 0xEAC5, offset: 0xEAC5, size: 0x8, addend: 0x0, symName: __ZNSt3__16vectorI6EntityNS_9allocatorIS1_EEE5beginB8ue170006Ev, symObjAddr: 0x11C8, symBinAddr: 0x10000480C, symSize: 0x30 }
  - { offsetInCU: 0xEAEC, offset: 0xEAEC, size: 0x8, addend: 0x0, symName: __ZNSt3__16vectorI6EntityNS_9allocatorIS1_EEE4backB8ue170006Ev, symObjAddr: 0x11F8, symBinAddr: 0x10000483C, symSize: 0x1C }
  - { offsetInCU: 0xEB11, offset: 0xEB11, size: 0x8, addend: 0x0, symName: __ZN6EntityD1Ev, symObjAddr: 0x125C, symBinAddr: 0x1000048A0, symSize: 0x2C }
  - { offsetInCU: 0xEB3C, offset: 0xEB3C, size: 0x8, addend: 0x0, symName: __ZNSt3__16vectorI6EntityNS_9allocatorIS1_EEED1B8ue170006Ev, symObjAddr: 0x1288, symBinAddr: 0x1000048CC, symSize: 0x2C }
  - { offsetInCU: 0xEB65, offset: 0xEB65, size: 0x8, addend: 0x0, symName: __ZN6EntityC2Ev, symObjAddr: 0x12B4, symBinAddr: 0x1000048F8, symSize: 0x2C }
  - { offsetInCU: 0xEB90, offset: 0xEB90, size: 0x8, addend: 0x0, symName: __ZNSt3__112basic_stringIcNS_11char_traitsIcEENS_9allocatorIcEEEC1B8ue170006Ev, symObjAddr: 0x12E0, symBinAddr: 0x100004924, symSize: 0x2C }
  - { offsetInCU: 0xEBB9, offset: 0xEBB9, size: 0x8, addend: 0x0, symName: __ZNSt3__112basic_stringIcNS_11char_traitsIcEENS_9allocatorIcEEEC2B8ue170006Ev, symObjAddr: 0x130C, symBinAddr: 0x100004950, symSize: 0x3C }
  - { offsetInCU: 0xEBE7, offset: 0xEBE7, size: 0x8, addend: 0x0, symName: __ZNSt3__117__compressed_pairINS_12basic_stringIcNS_11char_traitsIcEENS_9allocatorIcEEE5__repES5_EC1B8ue170006INS_18__default_init_tagESA_EEOT_OT0_, symObjAddr: 0x1348, symBinAddr: 0x10000498C, symSize: 0x3C }
  - { offsetInCU: 0xEC3E, offset: 0xEC3E, size: 0x8, addend: 0x0, symName: __ZNSt3__112basic_stringIcNS_11char_traitsIcEENS_9allocatorIcEEE14__default_initB8ue170006Ev, symObjAddr: 0x1384, symBinAddr: 0x1000049C8, symSize: 0xB0 }
  - { offsetInCU: 0xEC90, offset: 0xEC90, size: 0x8, addend: 0x0, symName: __ZNSt3__117__compressed_pairINS_12basic_stringIcNS_11char_traitsIcEENS_9allocatorIcEEE5__repES5_EC2B8ue170006INS_18__default_init_tagESA_EEOT_OT0_, symObjAddr: 0x1434, symBinAddr: 0x100004A78, symSize: 0x3C }
  - { offsetInCU: 0xECE7, offset: 0xECE7, size: 0x8, addend: 0x0, symName: __ZNSt3__122__compressed_pair_elemINS_12basic_stringIcNS_11char_traitsIcEENS_9allocatorIcEEE5__repELi0ELb0EEC2B8ue170006ENS_18__default_init_tagE, symObjAddr: 0x1470, symBinAddr: 0x100004AB4, symSize: 0x14 }
  - { offsetInCU: 0xED1A, offset: 0xED1A, size: 0x8, addend: 0x0, symName: __ZNSt3__122__compressed_pair_elemINS_9allocatorIcEELi1ELb1EEC2B8ue170006ENS_18__default_init_tagE, symObjAddr: 0x1484, symBinAddr: 0x100004AC8, symSize: 0x2C }
  - { offsetInCU: 0xED4D, offset: 0xED4D, size: 0x8, addend: 0x0, symName: __ZNSt3__19allocatorIcEC2B8ue170006Ev, symObjAddr: 0x14B0, symBinAddr: 0x100004AF4, symSize: 0x2C }
  - { offsetInCU: 0xED76, offset: 0xED76, size: 0x8, addend: 0x0, symName: __ZNSt3__116__non_trivial_ifILb1ENS_9allocatorIcEEEC2B8ue170006Ev, symObjAddr: 0x14DC, symBinAddr: 0x100004B20, symSize: 0x14 }
  - { offsetInCU: 0xED9F, offset: 0xED9F, size: 0x8, addend: 0x0, symName: __ZNSt3__117__compressed_pairINS_12basic_stringIcNS_11char_traitsIcEENS_9allocatorIcEEE5__repES5_E5firstB8ue170006Ev, symObjAddr: 0x14F0, symBinAddr: 0x100004B34, symSize: 0x24 }
  - { offsetInCU: 0xEDC4, offset: 0xEDC4, size: 0x8, addend: 0x0, symName: __ZNSt3__112basic_stringIcNS_11char_traitsIcEENS_9allocatorIcEEE11__recommendB8ue170006Em, symObjAddr: 0x1520, symBinAddr: 0x100004B64, symSize: 0x9C }
  - { offsetInCU: 0xEDF7, offset: 0xEDF7, size: 0x8, addend: 0x0, symName: __ZNSt3__116allocator_traitsINS_9allocatorIcEEE8allocateB8ue170006ERS2_m, symObjAddr: 0x15BC, symBinAddr: 0x100004C00, symSize: 0x2C }
  - { offsetInCU: 0xEE2A, offset: 0xEE2A, size: 0x8, addend: 0x0, symName: __ZNSt3__112basic_stringIcNS_11char_traitsIcEENS_9allocatorIcEEE7__allocB8ue170006Ev, symObjAddr: 0x15E8, symBinAddr: 0x100004C2C, symSize: 0x24 }
  - { offsetInCU: 0xEE4F, offset: 0xEE4F, size: 0x8, addend: 0x0, symName: __ZNSt3__112basic_stringIcNS_11char_traitsIcEENS_9allocatorIcEEE16__begin_lifetimeB8ue170006EPcm, symObjAddr: 0x160C, symBinAddr: 0x100004C50, symSize: 0x14 }
  - { offsetInCU: 0xEE82, offset: 0xEE82, size: 0x8, addend: 0x0, symName: __ZNSt3__112basic_stringIcNS_11char_traitsIcEENS_9allocatorIcEEE18__set_long_pointerB8ue170006EPc, symObjAddr: 0x1620, symBinAddr: 0x100004C64, symSize: 0x38 }
  - { offsetInCU: 0xEEB6, offset: 0xEEB6, size: 0x8, addend: 0x0, symName: __ZNSt3__112basic_stringIcNS_11char_traitsIcEENS_9allocatorIcEEE14__set_long_capB8ue170006Em, symObjAddr: 0x1658, symBinAddr: 0x100004C9C, symSize: 0x70 }
  - { offsetInCU: 0xEEEA, offset: 0xEEEA, size: 0x8, addend: 0x0, symName: __ZNSt3__112basic_stringIcNS_11char_traitsIcEENS_9allocatorIcEEE15__set_long_sizeB8ue170006Em, symObjAddr: 0x16C8, symBinAddr: 0x100004D0C, symSize: 0x38 }
  - { offsetInCU: 0xEF1E, offset: 0xEF1E, size: 0x8, addend: 0x0, symName: __ZNSt3__122__compressed_pair_elemINS_12basic_stringIcNS_11char_traitsIcEENS_9allocatorIcEEE5__repELi0ELb0EE5__getB8ue170006Ev, symObjAddr: 0x1700, symBinAddr: 0x100004D44, symSize: 0x14 }
  - { offsetInCU: 0xEF43, offset: 0xEF43, size: 0x8, addend: 0x0, symName: __ZNSt3__112basic_stringIcNS_11char_traitsIcEENS_9allocatorIcEEE10__align_itB8ue170006ILm16EEEmm, symObjAddr: 0x1714, symBinAddr: 0x100004D58, symSize: 0x1C }
  - { offsetInCU: 0xEF71, offset: 0xEF71, size: 0x8, addend: 0x0, symName: __ZNSt3__19allocatorIcE8allocateB8ue170006Em, symObjAddr: 0x1730, symBinAddr: 0x100004D74, symSize: 0x84 }
  - { offsetInCU: 0xEFAE, offset: 0xEFAE, size: 0x8, addend: 0x0, symName: __ZNSt3__116allocator_traitsINS_9allocatorIcEEE8max_sizeB8ue170006IS2_vEEmRKS2_, symObjAddr: 0x17B4, symBinAddr: 0x100004DF8, symSize: 0x24 }
  - { offsetInCU: 0xEFDC, offset: 0xEFDC, size: 0x8, addend: 0x0, symName: __ZNKSt3__19allocatorIcE8max_sizeB8ue170006Ev, symObjAddr: 0x1834, symBinAddr: 0x100004E78, symSize: 0x14 }
  - { offsetInCU: 0xF001, offset: 0xF001, size: 0x8, addend: 0x0, symName: __ZNSt3__117__compressed_pairINS_12basic_stringIcNS_11char_traitsIcEENS_9allocatorIcEEE5__repES5_E6secondB8ue170006Ev, symObjAddr: 0x186C, symBinAddr: 0x100004EB0, symSize: 0x24 }
  - { offsetInCU: 0xF026, offset: 0xF026, size: 0x8, addend: 0x0, symName: __ZNSt3__122__compressed_pair_elemINS_9allocatorIcEELi1ELb1EE5__getB8ue170006Ev, symObjAddr: 0x1890, symBinAddr: 0x100004ED4, symSize: 0x14 }
  - { offsetInCU: 0xF04B, offset: 0xF04B, size: 0x8, addend: 0x0, symName: __ZN6EntityD2Ev, symObjAddr: 0x18A4, symBinAddr: 0x100004EE8, symSize: 0x2C }
  - { offsetInCU: 0xF076, offset: 0xF076, size: 0x8, addend: 0x0, symName: __ZNKSt3__16vectorI6EntityNS_9allocatorIS1_EEE11__make_iterB8ue170006EPKS1_, symObjAddr: 0x18D0, symBinAddr: 0x100004F14, symSize: 0x30 }
  - { offsetInCU: 0xF0AA, offset: 0xF0AA, size: 0x8, addend: 0x0, symName: __ZNSt3__111__wrap_iterIPK6EntityEC1B8ue170006ES3_, symObjAddr: 0x1900, symBinAddr: 0x100004F44, symSize: 0x34 }
  - { offsetInCU: 0xF0E1, offset: 0xF0E1, size: 0x8, addend: 0x0, symName: __ZNSt3__111__wrap_iterIPK6EntityEC2B8ue170006ES3_, symObjAddr: 0x1934, symBinAddr: 0x100004F78, symSize: 0x20 }
  - { offsetInCU: 0xF118, offset: 0xF118, size: 0x8, addend: 0x0, symName: __ZNKSt3__111__wrap_iterIPK6EntityE4baseB8ue170006Ev, symObjAddr: 0x199C, symBinAddr: 0x100004FE0, symSize: 0x18 }
  - { offsetInCU: 0xF13D, offset: 0xF13D, size: 0x8, addend: 0x0, symName: __ZNSt3__16vectorINS0_IcNS_9allocatorIcEEEENS1_IS3_EEE11__make_iterB8ue170006EPS3_, symObjAddr: 0x19B4, symBinAddr: 0x100004FF8, symSize: 0x30 }
  - { offsetInCU: 0xF171, offset: 0xF171, size: 0x8, addend: 0x0, symName: __ZNSt3__111__wrap_iterIPNS_6vectorIcNS_9allocatorIcEEEEEC1B8ue170006ES5_, symObjAddr: 0x19E4, symBinAddr: 0x100005028, symSize: 0x34 }
  - { offsetInCU: 0xF1A8, offset: 0xF1A8, size: 0x8, addend: 0x0, symName: __ZNSt3__111__wrap_iterIPNS_6vectorIcNS_9allocatorIcEEEEEC2B8ue170006ES5_, symObjAddr: 0x1A18, symBinAddr: 0x10000505C, symSize: 0x20 }
  - { offsetInCU: 0xF1DF, offset: 0xF1DF, size: 0x8, addend: 0x0, symName: __ZNKSt3__111__wrap_iterIPNS_6vectorIcNS_9allocatorIcEEEEE4baseB8ue170006Ev, symObjAddr: 0x1A80, symBinAddr: 0x1000050C4, symSize: 0x18 }
  - { offsetInCU: 0xF204, offset: 0xF204, size: 0x8, addend: 0x0, symName: __ZNKSt3__16vectorIcNS_9allocatorIcEEE11__make_iterB8ue170006EPKc, symObjAddr: 0x1A98, symBinAddr: 0x1000050DC, symSize: 0x30 }
  - { offsetInCU: 0xF238, offset: 0xF238, size: 0x8, addend: 0x0, symName: __ZNSt3__111__wrap_iterIPKcEC1B8ue170006ES2_, symObjAddr: 0x1AC8, symBinAddr: 0x10000510C, symSize: 0x34 }
  - { offsetInCU: 0xF26F, offset: 0xF26F, size: 0x8, addend: 0x0, symName: __ZNSt3__111__wrap_iterIPKcEC2B8ue170006ES2_, symObjAddr: 0x1AFC, symBinAddr: 0x100005140, symSize: 0x20 }
  - { offsetInCU: 0xF2A6, offset: 0xF2A6, size: 0x8, addend: 0x0, symName: __ZNKSt3__111__wrap_iterIPKcE4baseB8ue170006Ev, symObjAddr: 0x1B64, symBinAddr: 0x1000051A8, symSize: 0x18 }
  - { offsetInCU: 0xF2E9, offset: 0xF2E9, size: 0x8, addend: 0x0, symName: __ZNKSt3__113basic_ostreamIcNS_11char_traitsIcEEE6sentrycvbB8ue170006Ev, symObjAddr: 0x1D70, symBinAddr: 0x1000053B4, symSize: 0x1C }
  - { offsetInCU: 0xF30E, offset: 0xF30E, size: 0x8, addend: 0x0, symName: __ZNSt3__119ostreambuf_iteratorIcNS_11char_traitsIcEEEC1B8ue170006ERNS_13basic_ostreamIcS2_EE, symObjAddr: 0x1FD4, symBinAddr: 0x100005618, symSize: 0x34 }
  - { offsetInCU: 0xF345, offset: 0xF345, size: 0x8, addend: 0x0, symName: __ZNKSt3__18ios_base5flagsB8ue170006Ev, symObjAddr: 0x2008, symBinAddr: 0x10000564C, symSize: 0x18 }
  - { offsetInCU: 0xF36B, offset: 0xF36B, size: 0x8, addend: 0x0, symName: __ZNKSt3__19basic_iosIcNS_11char_traitsIcEEE4fillB8ue170006Ev, symObjAddr: 0x2020, symBinAddr: 0x100005664, symSize: 0x64 }
  - { offsetInCU: 0xF392, offset: 0xF392, size: 0x8, addend: 0x0, symName: __ZNKSt3__119ostreambuf_iteratorIcNS_11char_traitsIcEEE6failedB8ue170006Ev, symObjAddr: 0x2084, symBinAddr: 0x1000056C8, symSize: 0x24 }
  - { offsetInCU: 0xF3B7, offset: 0xF3B7, size: 0x8, addend: 0x0, symName: __ZNSt3__19basic_iosIcNS_11char_traitsIcEEE8setstateB8ue170006Ej, symObjAddr: 0x20A8, symBinAddr: 0x1000056EC, symSize: 0x2C }
  - { offsetInCU: 0xF3EB, offset: 0xF3EB, size: 0x8, addend: 0x0, symName: __ZNKSt3__18ios_base5widthB8ue170006Ev, symObjAddr: 0x20D4, symBinAddr: 0x100005718, symSize: 0x18 }
  - { offsetInCU: 0xF412, offset: 0xF412, size: 0x8, addend: 0x0, symName: __ZNSt3__115basic_streambufIcNS_11char_traitsIcEEE5sputnB8ue170006EPKcl, symObjAddr: 0x20EC, symBinAddr: 0x100005730, symSize: 0x3C }
  - { offsetInCU: 0xF453, offset: 0xF453, size: 0x8, addend: 0x0, symName: __ZNSt3__112basic_stringIcNS_11char_traitsIcEENS_9allocatorIcEEEC1B8ue170006Emc, symObjAddr: 0x2128, symBinAddr: 0x10000576C, symSize: 0x3C }
  - { offsetInCU: 0xF49A, offset: 0xF49A, size: 0x8, addend: 0x0, symName: __ZNKSt3__112basic_stringIcNS_11char_traitsIcEENS_9allocatorIcEEE4dataB8ue170006Ev, symObjAddr: 0x2164, symBinAddr: 0x1000057A8, symSize: 0x28 }
  - { offsetInCU: 0xF4BF, offset: 0xF4BF, size: 0x8, addend: 0x0, symName: __ZNSt3__18ios_base5widthB8ue170006El, symObjAddr: 0x218C, symBinAddr: 0x1000057D0, symSize: 0x2C }
  - { offsetInCU: 0xF504, offset: 0xF504, size: 0x8, addend: 0x0, symName: __ZNSt3__112basic_stringIcNS_11char_traitsIcEENS_9allocatorIcEEEC2B8ue170006Emc, symObjAddr: 0x21B8, symBinAddr: 0x1000057FC, symSize: 0x4C }
  - { offsetInCU: 0xF54B, offset: 0xF54B, size: 0x8, addend: 0x0, symName: __ZNKSt3__112basic_stringIcNS_11char_traitsIcEENS_9allocatorIcEEE13__get_pointerB8ue170006Ev, symObjAddr: 0x2218, symBinAddr: 0x10000585C, symSize: 0x54 }
  - { offsetInCU: 0xF570, offset: 0xF570, size: 0x8, addend: 0x0, symName: __ZNKSt3__112basic_stringIcNS_11char_traitsIcEENS_9allocatorIcEEE9__is_longB8ue170006Ev, symObjAddr: 0x226C, symBinAddr: 0x1000058B0, symSize: 0x74 }
  - { offsetInCU: 0xF595, offset: 0xF595, size: 0x8, addend: 0x0, symName: __ZNKSt3__112basic_stringIcNS_11char_traitsIcEENS_9allocatorIcEEE18__get_long_pointerB8ue170006Ev, symObjAddr: 0x22E0, symBinAddr: 0x100005924, symSize: 0x28 }
  - { offsetInCU: 0xF5BA, offset: 0xF5BA, size: 0x8, addend: 0x0, symName: __ZNKSt3__112basic_stringIcNS_11char_traitsIcEENS_9allocatorIcEEE19__get_short_pointerB8ue170006Ev, symObjAddr: 0x2308, symBinAddr: 0x10000594C, symSize: 0x28 }
  - { offsetInCU: 0xF5DF, offset: 0xF5DF, size: 0x8, addend: 0x0, symName: __ZNKSt3__117__compressed_pairINS_12basic_stringIcNS_11char_traitsIcEENS_9allocatorIcEEE5__repES5_E5firstB8ue170006Ev, symObjAddr: 0x2330, symBinAddr: 0x100005974, symSize: 0x24 }
  - { offsetInCU: 0xF604, offset: 0xF604, size: 0x8, addend: 0x0, symName: __ZNKSt3__122__compressed_pair_elemINS_12basic_stringIcNS_11char_traitsIcEENS_9allocatorIcEEE5__repELi0ELb0EE5__getB8ue170006Ev, symObjAddr: 0x2354, symBinAddr: 0x100005998, symSize: 0x14 }
  - { offsetInCU: 0xF629, offset: 0xF629, size: 0x8, addend: 0x0, symName: __ZNSt3__114pointer_traitsIPKcE10pointer_toB8ue170006ERS1_, symObjAddr: 0x2368, symBinAddr: 0x1000059AC, symSize: 0x14 }
  - { offsetInCU: 0xF64C, offset: 0xF64C, size: 0x8, addend: 0x0, symName: __ZNSt3__119ostreambuf_iteratorIcNS_11char_traitsIcEEEC2B8ue170006ERNS_13basic_ostreamIcS2_EE, symObjAddr: 0x237C, symBinAddr: 0x1000059C0, symSize: 0x68 }
  - { offsetInCU: 0xF682, offset: 0xF682, size: 0x8, addend: 0x0, symName: __ZNKSt3__19basic_iosIcNS_11char_traitsIcEEE5rdbufB8ue170006Ev, symObjAddr: 0x23E4, symBinAddr: 0x100005A28, symSize: 0x24 }
  - { offsetInCU: 0xF6A9, offset: 0xF6A9, size: 0x8, addend: 0x0, symName: __ZNKSt3__18ios_base5rdbufB8ue170006Ev, symObjAddr: 0x2408, symBinAddr: 0x100005A4C, symSize: 0x18 }
  - { offsetInCU: 0xF6CE, offset: 0xF6CE, size: 0x8, addend: 0x0, symName: __ZNSt3__111char_traitsIcE11eq_int_typeB8ue170006Eii, symObjAddr: 0x2420, symBinAddr: 0x100005A64, symSize: 0x28 }
  - { offsetInCU: 0xF701, offset: 0xF701, size: 0x8, addend: 0x0, symName: __ZNSt3__111char_traitsIcE3eofB8ue170006Ev, symObjAddr: 0x2448, symBinAddr: 0x100005A8C, symSize: 0x8 }
  - { offsetInCU: 0xF714, offset: 0xF714, size: 0x8, addend: 0x0, symName: __ZNKSt3__19basic_iosIcNS_11char_traitsIcEEE5widenB8ue170006Ec, symObjAddr: 0x2450, symBinAddr: 0x100005A94, symSize: 0x8C }
  - { offsetInCU: 0xF781, offset: 0xF781, size: 0x8, addend: 0x0, symName: __ZNKSt3__15ctypeIcE5widenB8ue170006Ec, symObjAddr: 0x2508, symBinAddr: 0x100005B4C, symSize: 0x38 }
  - { offsetInCU: 0xF7B4, offset: 0xF7B4, size: 0x8, addend: 0x0, symName: __ZNSt3__18ios_base8setstateB8ue170006Ej, symObjAddr: 0x2540, symBinAddr: 0x100005B84, symSize: 0x34 }
  - { offsetInCU: 0xF7EA, offset: 0xF7EA, size: 0x8, addend: 0x0, symName: __ZNSt3__16vectorIcNS_9allocatorIcEEEC2EmRKc, symObjAddr: 0x2574, symBinAddr: 0x100005BB8, symSize: 0xE4 }
  - { offsetInCU: 0xF84D, offset: 0xF84D, size: 0x8, addend: 0x0, symName: __ZNSt3__117__compressed_pairIPcNS_9allocatorIcEEEC1B8ue170006IDnNS_18__default_init_tagEEEOT_OT0_, symObjAddr: 0x2658, symBinAddr: 0x100005C9C, symSize: 0x3C }
  - { offsetInCU: 0xF8A4, offset: 0xF8A4, size: 0x8, addend: 0x0, symName: __ZNSt3__16vectorIcNS_9allocatorIcEEE16__destroy_vectorC1B8ue170006ERS3_, symObjAddr: 0x26D4, symBinAddr: 0x100005D18, symSize: 0x34 }
  - { offsetInCU: 0xF8DC, offset: 0xF8DC, size: 0x8, addend: 0x0, symName: __ZNSt3__16vectorIcNS_9allocatorIcEEE11__vallocateB8ue170006Em, symObjAddr: 0x2708, symBinAddr: 0x100005D4C, symSize: 0xAC }
  - { offsetInCU: 0xF91E, offset: 0xF91E, size: 0x8, addend: 0x0, symName: __ZNSt3__16vectorIcNS_9allocatorIcEEE18__construct_at_endEmRKc, symObjAddr: 0x27B4, symBinAddr: 0x100005DF8, symSize: 0xD8 }
  - { offsetInCU: 0xF99F, offset: 0xF99F, size: 0x8, addend: 0x0, symName: __ZNSt3__128__exception_guard_exceptionsINS_6vectorIcNS_9allocatorIcEEE16__destroy_vectorEE10__completeB8ue170006Ev, symObjAddr: 0x288C, symBinAddr: 0x100005ED0, symSize: 0x1C }
  - { offsetInCU: 0xF9C4, offset: 0xF9C4, size: 0x8, addend: 0x0, symName: __ZNSt3__128__exception_guard_exceptionsINS_6vectorIcNS_9allocatorIcEEE16__destroy_vectorEED1B8ue170006Ev, symObjAddr: 0x28A8, symBinAddr: 0x100005EEC, symSize: 0x2C }
  - { offsetInCU: 0xF9ED, offset: 0xF9ED, size: 0x8, addend: 0x0, symName: __ZNSt3__117__compressed_pairIPcNS_9allocatorIcEEEC2B8ue170006IDnNS_18__default_init_tagEEEOT_OT0_, symObjAddr: 0x28D4, symBinAddr: 0x100005F18, symSize: 0x40 }
  - { offsetInCU: 0xFA44, offset: 0xFA44, size: 0x8, addend: 0x0, symName: __ZNSt3__122__compressed_pair_elemIPcLi0ELb0EEC2B8ue170006IDnvEEOT_, symObjAddr: 0x2914, symBinAddr: 0x100005F58, symSize: 0x1C }
  - { offsetInCU: 0xFA85, offset: 0xFA85, size: 0x8, addend: 0x0, symName: __ZNSt3__128__exception_guard_exceptionsINS_6vectorIcNS_9allocatorIcEEE16__destroy_vectorEEC1B8ue170006ES5_, symObjAddr: 0x2930, symBinAddr: 0x100005F74, symSize: 0x34 }
  - { offsetInCU: 0xFABC, offset: 0xFABC, size: 0x8, addend: 0x0, symName: __ZNSt3__128__exception_guard_exceptionsINS_6vectorIcNS_9allocatorIcEEE16__destroy_vectorEEC2B8ue170006ES5_, symObjAddr: 0x2964, symBinAddr: 0x100005FA8, symSize: 0x24 }
  - { offsetInCU: 0xFAF3, offset: 0xFAF3, size: 0x8, addend: 0x0, symName: __ZNSt3__16vectorIcNS_9allocatorIcEEE16__destroy_vectorC2B8ue170006ERS3_, symObjAddr: 0x2988, symBinAddr: 0x100005FCC, symSize: 0x20 }
  - { offsetInCU: 0xFB2A, offset: 0xFB2A, size: 0x8, addend: 0x0, symName: __ZNKSt3__16vectorIcNS_9allocatorIcEEE8max_sizeEv, symObjAddr: 0x29A8, symBinAddr: 0x100005FEC, symSize: 0x74 }
  - { offsetInCU: 0xFB51, offset: 0xFB51, size: 0x8, addend: 0x0, symName: __ZNKSt3__16vectorIcNS_9allocatorIcEEE20__throw_length_errorB8ue170006Ev, symObjAddr: 0x2A1C, symBinAddr: 0x100006060, symSize: 0x1C }
  - { offsetInCU: 0xFB76, offset: 0xFB76, size: 0x8, addend: 0x0, symName: __ZNSt3__16vectorIcNS_9allocatorIcEEE7__allocB8ue170006Ev, symObjAddr: 0x2A78, symBinAddr: 0x1000060BC, symSize: 0x28 }
  - { offsetInCU: 0xFB9B, offset: 0xFB9B, size: 0x8, addend: 0x0, symName: __ZNSt3__16vectorIcNS_9allocatorIcEEE9__end_capB8ue170006Ev, symObjAddr: 0x2AA0, symBinAddr: 0x1000060E4, symSize: 0x28 }
  - { offsetInCU: 0xFBC0, offset: 0xFBC0, size: 0x8, addend: 0x0, symName: __ZNKSt3__16vectorIcNS_9allocatorIcEEE14__annotate_newB8ue170006Em, symObjAddr: 0x2AC8, symBinAddr: 0x10000610C, symSize: 0xAC }
  - { offsetInCU: 0xFBF4, offset: 0xFBF4, size: 0x8, addend: 0x0, symName: __ZNKSt3__16vectorIcNS_9allocatorIcEEE7__allocB8ue170006Ev, symObjAddr: 0x2BA0, symBinAddr: 0x1000061E4, symSize: 0x28 }
  - { offsetInCU: 0xFC19, offset: 0xFC19, size: 0x8, addend: 0x0, symName: __ZNSt3__114numeric_limitsIlE3maxB8ue170006Ev, symObjAddr: 0x2BC8, symBinAddr: 0x10000620C, symSize: 0x14 }
  - { offsetInCU: 0xFC41, offset: 0xFC41, size: 0x8, addend: 0x0, symName: __ZNKSt3__16__lessIvvEclB8ue170006ImmEEbRKT_RKT0_, symObjAddr: 0x2C30, symBinAddr: 0x100006274, symSize: 0x34 }
  - { offsetInCU: 0xFC94, offset: 0xFC94, size: 0x8, addend: 0x0, symName: __ZNKSt3__117__compressed_pairIPcNS_9allocatorIcEEE6secondB8ue170006Ev, symObjAddr: 0x2C64, symBinAddr: 0x1000062A8, symSize: 0x24 }
  - { offsetInCU: 0xFCB9, offset: 0xFCB9, size: 0x8, addend: 0x0, symName: __ZNKSt3__122__compressed_pair_elemINS_9allocatorIcEELi1ELb1EE5__getB8ue170006Ev, symObjAddr: 0x2C88, symBinAddr: 0x1000062CC, symSize: 0x14 }
  - { offsetInCU: 0xFCDE, offset: 0xFCDE, size: 0x8, addend: 0x0, symName: __ZNSt3__123__libcpp_numeric_limitsIlLb1EE3maxB8ue170006Ev, symObjAddr: 0x2C9C, symBinAddr: 0x1000062E0, symSize: 0x8 }
  - { offsetInCU: 0xFCF2, offset: 0xFCF2, size: 0x8, addend: 0x0, symName: __ZNSt12length_errorC1B8ue170006EPKc, symObjAddr: 0x2D08, symBinAddr: 0x10000634C, symSize: 0x34 }
  - { offsetInCU: 0xFD29, offset: 0xFD29, size: 0x8, addend: 0x0, symName: __ZNSt12length_errorC2B8ue170006EPKc, symObjAddr: 0x2D3C, symBinAddr: 0x100006380, symSize: 0x4C }
  - { offsetInCU: 0xFD60, offset: 0xFD60, size: 0x8, addend: 0x0, symName: __ZNSt3__117__compressed_pairIPcNS_9allocatorIcEEE6secondB8ue170006Ev, symObjAddr: 0x2D88, symBinAddr: 0x1000063CC, symSize: 0x24 }
  - { offsetInCU: 0xFD85, offset: 0xFD85, size: 0x8, addend: 0x0, symName: __ZNSt3__117__compressed_pairIPcNS_9allocatorIcEEE5firstB8ue170006Ev, symObjAddr: 0x2DAC, symBinAddr: 0x1000063F0, symSize: 0x24 }
  - { offsetInCU: 0xFDAA, offset: 0xFDAA, size: 0x8, addend: 0x0, symName: __ZNSt3__122__compressed_pair_elemIPcLi0ELb0EE5__getB8ue170006Ev, symObjAddr: 0x2DD0, symBinAddr: 0x100006414, symSize: 0x14 }
  - { offsetInCU: 0xFDCF, offset: 0xFDCF, size: 0x8, addend: 0x0, symName: __ZNKSt3__16vectorIcNS_9allocatorIcEEE31__annotate_contiguous_containerB8ue170006EPKvS5_S5_S5_, symObjAddr: 0x2DE4, symBinAddr: 0x100006428, symSize: 0x20 }
  - { offsetInCU: 0xFE24, offset: 0xFE24, size: 0x8, addend: 0x0, symName: __ZNKSt3__16vectorIcNS_9allocatorIcEEE4dataB8ue170006Ev, symObjAddr: 0x2E04, symBinAddr: 0x100006448, symSize: 0x28 }
  - { offsetInCU: 0xFE49, offset: 0xFE49, size: 0x8, addend: 0x0, symName: __ZNKSt3__16vectorIcNS_9allocatorIcEEE8capacityB8ue170006Ev, symObjAddr: 0x2E2C, symBinAddr: 0x100006470, symSize: 0x38 }
  - { offsetInCU: 0xFE6E, offset: 0xFE6E, size: 0x8, addend: 0x0, symName: __ZNKSt3__16vectorIcNS_9allocatorIcEEE9__end_capB8ue170006Ev, symObjAddr: 0x2E78, symBinAddr: 0x1000064BC, symSize: 0x28 }
  - { offsetInCU: 0xFE93, offset: 0xFE93, size: 0x8, addend: 0x0, symName: __ZNKSt3__117__compressed_pairIPcNS_9allocatorIcEEE5firstB8ue170006Ev, symObjAddr: 0x2EA0, symBinAddr: 0x1000064E4, symSize: 0x24 }
  - { offsetInCU: 0xFEB8, offset: 0xFEB8, size: 0x8, addend: 0x0, symName: __ZNKSt3__122__compressed_pair_elemIPcLi0ELb0EE5__getB8ue170006Ev, symObjAddr: 0x2EC4, symBinAddr: 0x100006508, symSize: 0x14 }
  - { offsetInCU: 0xFEF6, offset: 0xFEF6, size: 0x8, addend: 0x0, symName: __ZNSt3__16vectorIcNS_9allocatorIcEEE21_ConstructTransactionC1B8ue170006ERS3_m, symObjAddr: 0x2ED8, symBinAddr: 0x10000651C, symSize: 0x3C }
  - { offsetInCU: 0xFF3D, offset: 0xFF3D, size: 0x8, addend: 0x0, symName: __ZNSt3__116allocator_traitsINS_9allocatorIcEEE9constructB8ue170006IcJRKcEvEEvRS2_PT_DpOT0_, symObjAddr: 0x2F14, symBinAddr: 0x100006558, symSize: 0x34 }
  - { offsetInCU: 0xFF94, offset: 0xFF94, size: 0x8, addend: 0x0, symName: __ZNSt3__16vectorIcNS_9allocatorIcEEE21_ConstructTransactionD1B8ue170006Ev, symObjAddr: 0x2F48, symBinAddr: 0x10000658C, symSize: 0x2C }
  - { offsetInCU: 0xFFBD, offset: 0xFFBD, size: 0x8, addend: 0x0, symName: __ZNSt3__16vectorIcNS_9allocatorIcEEE21_ConstructTransactionC2B8ue170006ERS3_m, symObjAddr: 0x2F74, symBinAddr: 0x1000065B8, symSize: 0x44 }
  - { offsetInCU: 0x10004, offset: 0x10004, size: 0x8, addend: 0x0, symName: __ZNSt3__19allocatorIcE9constructB8ue170006IcJRKcEEEvPT_DpOT0_, symObjAddr: 0x2FB8, symBinAddr: 0x1000065FC, symSize: 0x28 }
  - { offsetInCU: 0x10059, offset: 0x10059, size: 0x8, addend: 0x0, symName: __ZNSt3__16vectorIcNS_9allocatorIcEEE21_ConstructTransactionD2B8ue170006Ev, symObjAddr: 0x2FE0, symBinAddr: 0x100006624, symSize: 0x20 }
  - { offsetInCU: 0x10082, offset: 0x10082, size: 0x8, addend: 0x0, symName: __ZNSt3__128__exception_guard_exceptionsINS_6vectorIcNS_9allocatorIcEEE16__destroy_vectorEED2B8ue170006Ev, symObjAddr: 0x3000, symBinAddr: 0x100006644, symSize: 0x48 }
  - { offsetInCU: 0x100AB, offset: 0x100AB, size: 0x8, addend: 0x0, symName: __ZNSt3__16vectorIcNS_9allocatorIcEEE16__destroy_vectorclB8ue170006Ev, symObjAddr: 0x3048, symBinAddr: 0x10000668C, symSize: 0x90 }
  - { offsetInCU: 0x100D0, offset: 0x100D0, size: 0x8, addend: 0x0, symName: __ZNSt3__16vectorIcNS_9allocatorIcEEE7__clearB8ue170006Ev, symObjAddr: 0x30D8, symBinAddr: 0x10000671C, symSize: 0x28 }
  - { offsetInCU: 0x100F5, offset: 0x100F5, size: 0x8, addend: 0x0, symName: __ZNKSt3__16vectorIcNS_9allocatorIcEEE17__annotate_deleteB8ue170006Ev, symObjAddr: 0x3100, symBinAddr: 0x100006744, symSize: 0xB8 }
  - { offsetInCU: 0x1011A, offset: 0x1011A, size: 0x8, addend: 0x0, symName: __ZNSt3__116allocator_traitsINS_9allocatorIcEEE10deallocateB8ue170006ERS2_Pcm, symObjAddr: 0x31B8, symBinAddr: 0x1000067FC, symSize: 0x34 }
  - { offsetInCU: 0x1015C, offset: 0x1015C, size: 0x8, addend: 0x0, symName: __ZNSt3__16vectorIcNS_9allocatorIcEEE22__base_destruct_at_endB8ue170006EPc, symObjAddr: 0x31EC, symBinAddr: 0x100006830, symSize: 0xA0 }
  - { offsetInCU: 0x1019F, offset: 0x1019F, size: 0x8, addend: 0x0, symName: __ZNSt3__116allocator_traitsINS_9allocatorIcEEE7destroyB8ue170006IcvEEvRS2_PT_, symObjAddr: 0x328C, symBinAddr: 0x1000068D0, symSize: 0x2C }
  - { offsetInCU: 0x101DC, offset: 0x101DC, size: 0x8, addend: 0x0, symName: __ZNSt3__19allocatorIcE7destroyB8ue170006EPc, symObjAddr: 0x32B8, symBinAddr: 0x1000068FC, symSize: 0x14 }
  - { offsetInCU: 0x1020F, offset: 0x1020F, size: 0x8, addend: 0x0, symName: __ZNKSt3__16vectorIcNS_9allocatorIcEEE4sizeB8ue170006Ev, symObjAddr: 0x32CC, symBinAddr: 0x100006910, symSize: 0x20 }
  - { offsetInCU: 0x10234, offset: 0x10234, size: 0x8, addend: 0x0, symName: __ZNSt3__19allocatorIcE10deallocateB8ue170006EPcm, symObjAddr: 0x32EC, symBinAddr: 0x100006930, symSize: 0x70 }
  - { offsetInCU: 0x10275, offset: 0x10275, size: 0x8, addend: 0x0, symName: __ZNSt3__16vectorIcNS_9allocatorIcEEED2B8ue170006Ev, symObjAddr: 0x33D8, symBinAddr: 0x100006A1C, symSize: 0x3C }
  - { offsetInCU: 0x1029E, offset: 0x1029E, size: 0x8, addend: 0x0, symName: __ZNSt3__16vectorINS0_IcNS_9allocatorIcEEEENS1_IS3_EEEC2EmRKS3_, symObjAddr: 0x3414, symBinAddr: 0x100006A58, symSize: 0xE4 }
  - { offsetInCU: 0x102FC, offset: 0x102FC, size: 0x8, addend: 0x0, symName: __ZNSt3__117__compressed_pairIPNS_6vectorIcNS_9allocatorIcEEEENS2_IS4_EEEC1B8ue170006IDnNS_18__default_init_tagEEEOT_OT0_, symObjAddr: 0x34F8, symBinAddr: 0x100006B3C, symSize: 0x3C }
  - { offsetInCU: 0x10353, offset: 0x10353, size: 0x8, addend: 0x0, symName: __ZNSt3__16vectorINS0_IcNS_9allocatorIcEEEENS1_IS3_EEE16__destroy_vectorC1B8ue170006ERS5_, symObjAddr: 0x3574, symBinAddr: 0x100006BB8, symSize: 0x34 }
  - { offsetInCU: 0x1038B, offset: 0x1038B, size: 0x8, addend: 0x0, symName: __ZNSt3__16vectorINS0_IcNS_9allocatorIcEEEENS1_IS3_EEE11__vallocateB8ue170006Em, symObjAddr: 0x35A8, symBinAddr: 0x100006BEC, symSize: 0xB4 }
  - { offsetInCU: 0x103CD, offset: 0x103CD, size: 0x8, addend: 0x0, symName: __ZNSt3__16vectorINS0_IcNS_9allocatorIcEEEENS1_IS3_EEE18__construct_at_endEmRKS3_, symObjAddr: 0x365C, symBinAddr: 0x100006CA0, symSize: 0xD8 }
  - { offsetInCU: 0x1044E, offset: 0x1044E, size: 0x8, addend: 0x0, symName: __ZNSt3__128__exception_guard_exceptionsINS_6vectorINS1_IcNS_9allocatorIcEEEENS2_IS4_EEE16__destroy_vectorEE10__completeB8ue170006Ev, symObjAddr: 0x3734, symBinAddr: 0x100006D78, symSize: 0x1C }
  - { offsetInCU: 0x10473, offset: 0x10473, size: 0x8, addend: 0x0, symName: __ZNSt3__128__exception_guard_exceptionsINS_6vectorINS1_IcNS_9allocatorIcEEEENS2_IS4_EEE16__destroy_vectorEED1B8ue170006Ev, symObjAddr: 0x3750, symBinAddr: 0x100006D94, symSize: 0x2C }
  - { offsetInCU: 0x1049C, offset: 0x1049C, size: 0x8, addend: 0x0, symName: __ZNSt3__117__compressed_pairIPNS_6vectorIcNS_9allocatorIcEEEENS2_IS4_EEEC2B8ue170006IDnNS_18__default_init_tagEEEOT_OT0_, symObjAddr: 0x377C, symBinAddr: 0x100006DC0, symSize: 0x40 }
  - { offsetInCU: 0x104F3, offset: 0x104F3, size: 0x8, addend: 0x0, symName: __ZNSt3__122__compressed_pair_elemIPNS_6vectorIcNS_9allocatorIcEEEELi0ELb0EEC2B8ue170006IDnvEEOT_, symObjAddr: 0x37BC, symBinAddr: 0x100006E00, symSize: 0x1C }
  - { offsetInCU: 0x10534, offset: 0x10534, size: 0x8, addend: 0x0, symName: __ZNSt3__122__compressed_pair_elemINS_9allocatorINS_6vectorIcNS1_IcEEEEEELi1ELb1EEC2B8ue170006ENS_18__default_init_tagE, symObjAddr: 0x37D8, symBinAddr: 0x100006E1C, symSize: 0x2C }
  - { offsetInCU: 0x10567, offset: 0x10567, size: 0x8, addend: 0x0, symName: __ZNSt3__19allocatorINS_6vectorIcNS0_IcEEEEEC2B8ue170006Ev, symObjAddr: 0x3804, symBinAddr: 0x100006E48, symSize: 0x2C }
  - { offsetInCU: 0x10590, offset: 0x10590, size: 0x8, addend: 0x0, symName: __ZNSt3__116__non_trivial_ifILb1ENS_9allocatorINS_6vectorIcNS1_IcEEEEEEEC2B8ue170006Ev, symObjAddr: 0x3830, symBinAddr: 0x100006E74, symSize: 0x14 }
  - { offsetInCU: 0x105B9, offset: 0x105B9, size: 0x8, addend: 0x0, symName: __ZNSt3__128__exception_guard_exceptionsINS_6vectorINS1_IcNS_9allocatorIcEEEENS2_IS4_EEE16__destroy_vectorEEC1B8ue170006ES7_, symObjAddr: 0x3844, symBinAddr: 0x100006E88, symSize: 0x34 }
  - { offsetInCU: 0x105F0, offset: 0x105F0, size: 0x8, addend: 0x0, symName: __ZNSt3__128__exception_guard_exceptionsINS_6vectorINS1_IcNS_9allocatorIcEEEENS2_IS4_EEE16__destroy_vectorEEC2B8ue170006ES7_, symObjAddr: 0x3878, symBinAddr: 0x100006EBC, symSize: 0x24 }
  - { offsetInCU: 0x10627, offset: 0x10627, size: 0x8, addend: 0x0, symName: __ZNSt3__16vectorINS0_IcNS_9allocatorIcEEEENS1_IS3_EEE16__destroy_vectorC2B8ue170006ERS5_, symObjAddr: 0x389C, symBinAddr: 0x100006EE0, symSize: 0x20 }
  - { offsetInCU: 0x1065E, offset: 0x1065E, size: 0x8, addend: 0x0, symName: __ZNKSt3__16vectorINS0_IcNS_9allocatorIcEEEENS1_IS3_EEE8max_sizeEv, symObjAddr: 0x38BC, symBinAddr: 0x100006F00, symSize: 0x74 }
  - { offsetInCU: 0x10685, offset: 0x10685, size: 0x8, addend: 0x0, symName: __ZNKSt3__16vectorINS0_IcNS_9allocatorIcEEEENS1_IS3_EEE20__throw_length_errorB8ue170006Ev, symObjAddr: 0x3930, symBinAddr: 0x100006F74, symSize: 0x1C }
  - { offsetInCU: 0x106AA, offset: 0x106AA, size: 0x8, addend: 0x0, symName: __ZNSt3__16vectorINS0_IcNS_9allocatorIcEEEENS1_IS3_EEE7__allocB8ue170006Ev, symObjAddr: 0x398C, symBinAddr: 0x100006FD0, symSize: 0x28 }
  - { offsetInCU: 0x106CF, offset: 0x106CF, size: 0x8, addend: 0x0, symName: __ZNSt3__16vectorINS0_IcNS_9allocatorIcEEEENS1_IS3_EEE9__end_capB8ue170006Ev, symObjAddr: 0x39B4, symBinAddr: 0x100006FF8, symSize: 0x28 }
  - { offsetInCU: 0x106F4, offset: 0x106F4, size: 0x8, addend: 0x0, symName: __ZNKSt3__16vectorINS0_IcNS_9allocatorIcEEEENS1_IS3_EEE14__annotate_newB8ue170006Em, symObjAddr: 0x39DC, symBinAddr: 0x100007020, symSize: 0xC8 }
  - { offsetInCU: 0x10732, offset: 0x10732, size: 0x8, addend: 0x0, symName: __ZNSt3__116allocator_traitsINS_9allocatorINS_6vectorIcNS1_IcEEEEEEE8max_sizeB8ue170006IS5_vEEmRKS5_, symObjAddr: 0x3AA4, symBinAddr: 0x1000070E8, symSize: 0x24 }
  - { offsetInCU: 0x10760, offset: 0x10760, size: 0x8, addend: 0x0, symName: __ZNKSt3__16vectorINS0_IcNS_9allocatorIcEEEENS1_IS3_EEE7__allocB8ue170006Ev, symObjAddr: 0x3AC8, symBinAddr: 0x10000710C, symSize: 0x28 }
  - { offsetInCU: 0x10785, offset: 0x10785, size: 0x8, addend: 0x0, symName: __ZNKSt3__19allocatorINS_6vectorIcNS0_IcEEEEE8max_sizeB8ue170006Ev, symObjAddr: 0x3AF0, symBinAddr: 0x100007134, symSize: 0x18 }
  - { offsetInCU: 0x107AA, offset: 0x107AA, size: 0x8, addend: 0x0, symName: __ZNKSt3__117__compressed_pairIPNS_6vectorIcNS_9allocatorIcEEEENS2_IS4_EEE6secondB8ue170006Ev, symObjAddr: 0x3B08, symBinAddr: 0x10000714C, symSize: 0x24 }
  - { offsetInCU: 0x107CF, offset: 0x107CF, size: 0x8, addend: 0x0, symName: __ZNKSt3__122__compressed_pair_elemINS_9allocatorINS_6vectorIcNS1_IcEEEEEELi1ELb1EE5__getB8ue170006Ev, symObjAddr: 0x3B2C, symBinAddr: 0x100007170, symSize: 0x14 }
  - { offsetInCU: 0x107F4, offset: 0x107F4, size: 0x8, addend: 0x0, symName: __ZNSt3__19allocatorINS_6vectorIcNS0_IcEEEEE8allocateB8ue170006Em, symObjAddr: 0x3B40, symBinAddr: 0x100007184, symSize: 0x8C }
  - { offsetInCU: 0x10827, offset: 0x10827, size: 0x8, addend: 0x0, symName: __ZNSt3__117__compressed_pairIPNS_6vectorIcNS_9allocatorIcEEEENS2_IS4_EEE6secondB8ue170006Ev, symObjAddr: 0x3BCC, symBinAddr: 0x100007210, symSize: 0x24 }
  - { offsetInCU: 0x1084C, offset: 0x1084C, size: 0x8, addend: 0x0, symName: __ZNSt3__122__compressed_pair_elemINS_9allocatorINS_6vectorIcNS1_IcEEEEEELi1ELb1EE5__getB8ue170006Ev, symObjAddr: 0x3BF0, symBinAddr: 0x100007234, symSize: 0x14 }
  - { offsetInCU: 0x10871, offset: 0x10871, size: 0x8, addend: 0x0, symName: __ZNSt3__117__compressed_pairIPNS_6vectorIcNS_9allocatorIcEEEENS2_IS4_EEE5firstB8ue170006Ev, symObjAddr: 0x3C04, symBinAddr: 0x100007248, symSize: 0x24 }
  - { offsetInCU: 0x10896, offset: 0x10896, size: 0x8, addend: 0x0, symName: __ZNSt3__122__compressed_pair_elemIPNS_6vectorIcNS_9allocatorIcEEEELi0ELb0EE5__getB8ue170006Ev, symObjAddr: 0x3C28, symBinAddr: 0x10000726C, symSize: 0x14 }
  - { offsetInCU: 0x108BB, offset: 0x108BB, size: 0x8, addend: 0x0, symName: __ZNKSt3__16vectorINS0_IcNS_9allocatorIcEEEENS1_IS3_EEE31__annotate_contiguous_containerB8ue170006EPKvS7_S7_S7_, symObjAddr: 0x3C3C, symBinAddr: 0x100007280, symSize: 0x20 }
  - { offsetInCU: 0x10910, offset: 0x10910, size: 0x8, addend: 0x0, symName: __ZNKSt3__16vectorINS0_IcNS_9allocatorIcEEEENS1_IS3_EEE4dataB8ue170006Ev, symObjAddr: 0x3C5C, symBinAddr: 0x1000072A0, symSize: 0x28 }
  - { offsetInCU: 0x10935, offset: 0x10935, size: 0x8, addend: 0x0, symName: __ZNKSt3__16vectorINS0_IcNS_9allocatorIcEEEENS1_IS3_EEE8capacityB8ue170006Ev, symObjAddr: 0x3C84, symBinAddr: 0x1000072C8, symSize: 0x40 }
  - { offsetInCU: 0x1095A, offset: 0x1095A, size: 0x8, addend: 0x0, symName: __ZNKSt3__16vectorINS0_IcNS_9allocatorIcEEEENS1_IS3_EEE9__end_capB8ue170006Ev, symObjAddr: 0x3CD8, symBinAddr: 0x10000731C, symSize: 0x28 }
  - { offsetInCU: 0x1097F, offset: 0x1097F, size: 0x8, addend: 0x0, symName: __ZNKSt3__117__compressed_pairIPNS_6vectorIcNS_9allocatorIcEEEENS2_IS4_EEE5firstB8ue170006Ev, symObjAddr: 0x3D00, symBinAddr: 0x100007344, symSize: 0x24 }
  - { offsetInCU: 0x109A4, offset: 0x109A4, size: 0x8, addend: 0x0, symName: __ZNKSt3__122__compressed_pair_elemIPNS_6vectorIcNS_9allocatorIcEEEELi0ELb0EE5__getB8ue170006Ev, symObjAddr: 0x3D24, symBinAddr: 0x100007368, symSize: 0x14 }
  - { offsetInCU: 0x109E2, offset: 0x109E2, size: 0x8, addend: 0x0, symName: __ZNSt3__16vectorINS0_IcNS_9allocatorIcEEEENS1_IS3_EEE21_ConstructTransactionC1B8ue170006ERS5_m, symObjAddr: 0x3D38, symBinAddr: 0x10000737C, symSize: 0x3C }
  - { offsetInCU: 0x10A29, offset: 0x10A29, size: 0x8, addend: 0x0, symName: __ZNSt3__116allocator_traitsINS_9allocatorINS_6vectorIcNS1_IcEEEEEEE9constructB8ue170006IS4_JRKS4_EvEEvRS5_PT_DpOT0_, symObjAddr: 0x3D74, symBinAddr: 0x1000073B8, symSize: 0x34 }
  - { offsetInCU: 0x10A80, offset: 0x10A80, size: 0x8, addend: 0x0, symName: __ZNSt3__16vectorINS0_IcNS_9allocatorIcEEEENS1_IS3_EEE21_ConstructTransactionD1B8ue170006Ev, symObjAddr: 0x3DA8, symBinAddr: 0x1000073EC, symSize: 0x2C }
  - { offsetInCU: 0x10AA9, offset: 0x10AA9, size: 0x8, addend: 0x0, symName: __ZNSt3__16vectorINS0_IcNS_9allocatorIcEEEENS1_IS3_EEE21_ConstructTransactionC2B8ue170006ERS5_m, symObjAddr: 0x3DD4, symBinAddr: 0x100007418, symSize: 0x4C }
  - { offsetInCU: 0x10AF0, offset: 0x10AF0, size: 0x8, addend: 0x0, symName: __ZNSt3__19allocatorINS_6vectorIcNS0_IcEEEEE9constructB8ue170006IS3_JRKS3_EEEvPT_DpOT0_, symObjAddr: 0x3E20, symBinAddr: 0x100007464, symSize: 0x30 }
  - { offsetInCU: 0x10B45, offset: 0x10B45, size: 0x8, addend: 0x0, symName: __ZNSt3__16vectorIcNS_9allocatorIcEEEC1ERKS3_, symObjAddr: 0x3E50, symBinAddr: 0x100007494, symSize: 0x34 }
  - { offsetInCU: 0x10B7F, offset: 0x10B7F, size: 0x8, addend: 0x0, symName: __ZNSt3__16vectorIcNS_9allocatorIcEEEC2ERKS3_, symObjAddr: 0x3E84, symBinAddr: 0x1000074C8, symSize: 0x94 }
  - { offsetInCU: 0x10BB9, offset: 0x10BB9, size: 0x8, addend: 0x0, symName: __ZNSt3__116allocator_traitsINS_9allocatorIcEEE37select_on_container_copy_constructionB8ue170006IS2_vvEES2_RKS2_, symObjAddr: 0x3F18, symBinAddr: 0x10000755C, symSize: 0x10 }
  - { offsetInCU: 0x10BED, offset: 0x10BED, size: 0x8, addend: 0x0, symName: __ZNSt3__117__compressed_pairIPcNS_9allocatorIcEEEC1B8ue170006IDnS3_EEOT_OT0_, symObjAddr: 0x3F28, symBinAddr: 0x10000756C, symSize: 0x3C }
  - { offsetInCU: 0x10C44, offset: 0x10C44, size: 0x8, addend: 0x0, symName: __ZNSt3__16vectorIcNS_9allocatorIcEEE16__init_with_sizeB8ue170006IPcS5_EEvT_T0_m, symObjAddr: 0x3F64, symBinAddr: 0x1000075A8, symSize: 0xC0 }
  - { offsetInCU: 0x10CB7, offset: 0x10CB7, size: 0x8, addend: 0x0, symName: __ZNSt3__117__compressed_pairIPcNS_9allocatorIcEEEC2B8ue170006IDnS3_EEOT_OT0_, symObjAddr: 0x4024, symBinAddr: 0x100007668, symSize: 0x44 }
  - { offsetInCU: 0x10D0E, offset: 0x10D0E, size: 0x8, addend: 0x0, symName: __ZNSt3__122__compressed_pair_elemINS_9allocatorIcEELi1ELb1EEC2B8ue170006IS2_vEEOT_, symObjAddr: 0x4068, symBinAddr: 0x1000076AC, symSize: 0x18 }
  - { offsetInCU: 0x10D4E, offset: 0x10D4E, size: 0x8, addend: 0x0, symName: __ZNSt3__16vectorIcNS_9allocatorIcEEE18__construct_at_endIPcS5_EEvT_T0_m, symObjAddr: 0x4080, symBinAddr: 0x1000076C4, symSize: 0x94 }
  - { offsetInCU: 0x10DDC, offset: 0x10DDC, size: 0x8, addend: 0x0, symName: __ZNSt3__14pairIPcS1_EC1B8ue170006ERKS1_S4_, symObjAddr: 0x439C, symBinAddr: 0x1000079E0, symSize: 0x3C }
  - { offsetInCU: 0x10E21, offset: 0x10E21, size: 0x8, addend: 0x0, symName: __ZNSt3__14pairIPcS1_EC2B8ue170006ERKS1_S4_, symObjAddr: 0x43D8, symBinAddr: 0x100007A1C, symSize: 0x34 }
  - { offsetInCU: 0x10E66, offset: 0x10E66, size: 0x8, addend: 0x0, symName: __ZNSt3__129_AllocatorDestroyRangeReverseINS_9allocatorIcEEPcEC1B8ue170006ERS2_RS3_S6_, symObjAddr: 0x4458, symBinAddr: 0x100007A9C, symSize: 0x44 }
  - { offsetInCU: 0x10EBC, offset: 0x10EBC, size: 0x8, addend: 0x0, symName: __ZNSt3__116allocator_traitsINS_9allocatorIcEEE9constructB8ue170006IcJRcEvEEvRS2_PT_DpOT0_, symObjAddr: 0x449C, symBinAddr: 0x100007AE0, symSize: 0x34 }
  - { offsetInCU: 0x10F13, offset: 0x10F13, size: 0x8, addend: 0x0, symName: __ZNSt3__128__exception_guard_exceptionsINS_29_AllocatorDestroyRangeReverseINS_9allocatorIcEEPcEEE10__completeB8ue170006Ev, symObjAddr: 0x44D0, symBinAddr: 0x100007B14, symSize: 0x1C }
  - { offsetInCU: 0x10F38, offset: 0x10F38, size: 0x8, addend: 0x0, symName: __ZNSt3__128__exception_guard_exceptionsINS_29_AllocatorDestroyRangeReverseINS_9allocatorIcEEPcEEED1B8ue170006Ev, symObjAddr: 0x44EC, symBinAddr: 0x100007B30, symSize: 0x2C }
  - { offsetInCU: 0x10F61, offset: 0x10F61, size: 0x8, addend: 0x0, symName: __ZNSt3__128__exception_guard_exceptionsINS_29_AllocatorDestroyRangeReverseINS_9allocatorIcEEPcEEEC1B8ue170006ES5_, symObjAddr: 0x4518, symBinAddr: 0x100007B5C, symSize: 0x34 }
  - { offsetInCU: 0x10F99, offset: 0x10F99, size: 0x8, addend: 0x0, symName: __ZNSt3__128__exception_guard_exceptionsINS_29_AllocatorDestroyRangeReverseINS_9allocatorIcEEPcEEEC2B8ue170006ES5_, symObjAddr: 0x454C, symBinAddr: 0x100007B90, symSize: 0x30 }
  - { offsetInCU: 0x10FD1, offset: 0x10FD1, size: 0x8, addend: 0x0, symName: __ZNSt3__129_AllocatorDestroyRangeReverseINS_9allocatorIcEEPcEC2B8ue170006ERS2_RS3_S6_, symObjAddr: 0x457C, symBinAddr: 0x100007BC0, symSize: 0x38 }
  - { offsetInCU: 0x11027, offset: 0x11027, size: 0x8, addend: 0x0, symName: __ZNSt3__19allocatorIcE9constructB8ue170006IcJRcEEEvPT_DpOT0_, symObjAddr: 0x45B4, symBinAddr: 0x100007BF8, symSize: 0x28 }
  - { offsetInCU: 0x1107C, offset: 0x1107C, size: 0x8, addend: 0x0, symName: __ZNSt3__128__exception_guard_exceptionsINS_29_AllocatorDestroyRangeReverseINS_9allocatorIcEEPcEEED2B8ue170006Ev, symObjAddr: 0x45DC, symBinAddr: 0x100007C20, symSize: 0x48 }
  - { offsetInCU: 0x110A5, offset: 0x110A5, size: 0x8, addend: 0x0, symName: __ZNKSt3__129_AllocatorDestroyRangeReverseINS_9allocatorIcEEPcEclB8ue170006Ev, symObjAddr: 0x4624, symBinAddr: 0x100007C68, symSize: 0x68 }
  - { offsetInCU: 0x110CA, offset: 0x110CA, size: 0x8, addend: 0x0, symName: __ZNSt3__116reverse_iteratorIPcEC1B8ue170006ES1_, symObjAddr: 0x46FC, symBinAddr: 0x100007D40, symSize: 0x34 }
  - { offsetInCU: 0x11101, offset: 0x11101, size: 0x8, addend: 0x0, symName: __ZNSt3__116reverse_iteratorIPcEppB8ue170006Ev, symObjAddr: 0x479C, symBinAddr: 0x100007DE0, symSize: 0x20 }
  - { offsetInCU: 0x11126, offset: 0x11126, size: 0x8, addend: 0x0, symName: __ZNKSt3__116reverse_iteratorIPcE4baseB8ue170006Ev, symObjAddr: 0x47BC, symBinAddr: 0x100007E00, symSize: 0x18 }
  - { offsetInCU: 0x11150, offset: 0x11150, size: 0x8, addend: 0x0, symName: __ZNSt3__119__to_address_helperINS_16reverse_iteratorIPcEEvE6__callB8ue170006ERKS3_, symObjAddr: 0x47D4, symBinAddr: 0x100007E18, symSize: 0x4C }
  - { offsetInCU: 0x11173, offset: 0x11173, size: 0x8, addend: 0x0, symName: __ZNKSt3__116reverse_iteratorIPcEptB8ue170006Ev, symObjAddr: 0x4820, symBinAddr: 0x100007E64, symSize: 0x24 }
  - { offsetInCU: 0x11198, offset: 0x11198, size: 0x8, addend: 0x0, symName: __ZNKSt3__116reverse_iteratorIPcEdeB8ue170006Ev, symObjAddr: 0x4844, symBinAddr: 0x100007E88, symSize: 0x28 }
  - { offsetInCU: 0x111CB, offset: 0x111CB, size: 0x8, addend: 0x0, symName: __ZNSt3__116reverse_iteratorIPcEC2B8ue170006ES1_, symObjAddr: 0x486C, symBinAddr: 0x100007EB0, symSize: 0x28 }
  - { offsetInCU: 0x11202, offset: 0x11202, size: 0x8, addend: 0x0, symName: __ZNSt3__118__unwrap_iter_implIPcLb1EE8__unwrapB8ue170006ES1_, symObjAddr: 0x4894, symBinAddr: 0x100007ED8, symSize: 0x24 }
  - { offsetInCU: 0x11225, offset: 0x11225, size: 0x8, addend: 0x0, symName: __ZNSt3__118__unwrap_iter_implIPcLb1EE8__rewrapB8ue170006ES1_S1_, symObjAddr: 0x48B8, symBinAddr: 0x100007EFC, symSize: 0x48 }
  - { offsetInCU: 0x11256, offset: 0x11256, size: 0x8, addend: 0x0, symName: __ZNSt3__16vectorINS0_IcNS_9allocatorIcEEEENS1_IS3_EEE21_ConstructTransactionD2B8ue170006Ev, symObjAddr: 0x4900, symBinAddr: 0x100007F44, symSize: 0x20 }
  - { offsetInCU: 0x1127F, offset: 0x1127F, size: 0x8, addend: 0x0, symName: __ZNSt3__128__exception_guard_exceptionsINS_6vectorINS1_IcNS_9allocatorIcEEEENS2_IS4_EEE16__destroy_vectorEED2B8ue170006Ev, symObjAddr: 0x4920, symBinAddr: 0x100007F64, symSize: 0x48 }
  - { offsetInCU: 0x112A8, offset: 0x112A8, size: 0x8, addend: 0x0, symName: __ZNSt3__16vectorINS0_IcNS_9allocatorIcEEEENS1_IS3_EEE16__destroy_vectorclB8ue170006Ev, symObjAddr: 0x4968, symBinAddr: 0x100007FAC, symSize: 0x90 }
  - { offsetInCU: 0x112CD, offset: 0x112CD, size: 0x8, addend: 0x0, symName: __ZNSt3__16vectorINS0_IcNS_9allocatorIcEEEENS1_IS3_EEE7__clearB8ue170006Ev, symObjAddr: 0x49F8, symBinAddr: 0x10000803C, symSize: 0x28 }
  - { offsetInCU: 0x112F2, offset: 0x112F2, size: 0x8, addend: 0x0, symName: __ZNKSt3__16vectorINS0_IcNS_9allocatorIcEEEENS1_IS3_EEE17__annotate_deleteB8ue170006Ev, symObjAddr: 0x4A20, symBinAddr: 0x100008064, symSize: 0xD4 }
  - { offsetInCU: 0x11317, offset: 0x11317, size: 0x8, addend: 0x0, symName: __ZNSt3__116allocator_traitsINS_9allocatorINS_6vectorIcNS1_IcEEEEEEE10deallocateB8ue170006ERS5_PS4_m, symObjAddr: 0x4AF4, symBinAddr: 0x100008138, symSize: 0x34 }
  - { offsetInCU: 0x11359, offset: 0x11359, size: 0x8, addend: 0x0, symName: __ZNSt3__16vectorINS0_IcNS_9allocatorIcEEEENS1_IS3_EEE22__base_destruct_at_endB8ue170006EPS3_, symObjAddr: 0x4B28, symBinAddr: 0x10000816C, symSize: 0xA0 }
  - { offsetInCU: 0x1139C, offset: 0x1139C, size: 0x8, addend: 0x0, symName: __ZNSt3__116allocator_traitsINS_9allocatorINS_6vectorIcNS1_IcEEEEEEE7destroyB8ue170006IS4_vEEvRS5_PT_, symObjAddr: 0x4BC8, symBinAddr: 0x10000820C, symSize: 0x2C }
  - { offsetInCU: 0x113D9, offset: 0x113D9, size: 0x8, addend: 0x0, symName: __ZNSt3__19allocatorINS_6vectorIcNS0_IcEEEEE7destroyB8ue170006EPS3_, symObjAddr: 0x4BF4, symBinAddr: 0x100008238, symSize: 0x28 }
  - { offsetInCU: 0x1140C, offset: 0x1140C, size: 0x8, addend: 0x0, symName: __ZNKSt3__16vectorINS0_IcNS_9allocatorIcEEEENS1_IS3_EEE4sizeB8ue170006Ev, symObjAddr: 0x4C1C, symBinAddr: 0x100008260, symSize: 0x28 }
  - { offsetInCU: 0x11431, offset: 0x11431, size: 0x8, addend: 0x0, symName: __ZNSt3__19allocatorINS_6vectorIcNS0_IcEEEEE10deallocateB8ue170006EPS3_m, symObjAddr: 0x4C44, symBinAddr: 0x100008288, symSize: 0x74 }
  - { offsetInCU: 0x11472, offset: 0x11472, size: 0x8, addend: 0x0, symName: __ZNSt3__16vectorINS0_IcNS_9allocatorIcEEEENS1_IS3_EEED2B8ue170006Ev, symObjAddr: 0x4CB8, symBinAddr: 0x1000082FC, symSize: 0x3C }
  - { offsetInCU: 0x1149B, offset: 0x1149B, size: 0x8, addend: 0x0, symName: __ZNSt3__16vectorI6EntityNS_9allocatorIS1_EEEC2B8ue170006Ev, symObjAddr: 0x4CF4, symBinAddr: 0x100008338, symSize: 0x44 }
  - { offsetInCU: 0x114C4, offset: 0x114C4, size: 0x8, addend: 0x0, symName: __ZNSt3__117__compressed_pairIP6EntityNS_9allocatorIS1_EEEC1B8ue170006IDnNS_18__default_init_tagEEEOT_OT0_, symObjAddr: 0x4D38, symBinAddr: 0x10000837C, symSize: 0x3C }
  - { offsetInCU: 0x1151B, offset: 0x1151B, size: 0x8, addend: 0x0, symName: __ZNSt3__117__compressed_pairIP6EntityNS_9allocatorIS1_EEEC2B8ue170006IDnNS_18__default_init_tagEEEOT_OT0_, symObjAddr: 0x4D74, symBinAddr: 0x1000083B8, symSize: 0x40 }
  - { offsetInCU: 0x11572, offset: 0x11572, size: 0x8, addend: 0x0, symName: __ZNSt3__122__compressed_pair_elemIP6EntityLi0ELb0EEC2B8ue170006IDnvEEOT_, symObjAddr: 0x4DB4, symBinAddr: 0x1000083F8, symSize: 0x1C }
  - { offsetInCU: 0x115B3, offset: 0x115B3, size: 0x8, addend: 0x0, symName: __ZNSt3__122__compressed_pair_elemINS_9allocatorI6EntityEELi1ELb1EEC2B8ue170006ENS_18__default_init_tagE, symObjAddr: 0x4DD0, symBinAddr: 0x100008414, symSize: 0x2C }
  - { offsetInCU: 0x115E6, offset: 0x115E6, size: 0x8, addend: 0x0, symName: __ZNSt3__19allocatorI6EntityEC2B8ue170006Ev, symObjAddr: 0x4DFC, symBinAddr: 0x100008440, symSize: 0x2C }
  - { offsetInCU: 0x1160F, offset: 0x1160F, size: 0x8, addend: 0x0, symName: __ZNSt3__116__non_trivial_ifILb1ENS_9allocatorI6EntityEEEC2B8ue170006Ev, symObjAddr: 0x4E28, symBinAddr: 0x10000846C, symSize: 0x14 }
  - { offsetInCU: 0x11638, offset: 0x11638, size: 0x8, addend: 0x0, symName: __ZNSt3__16vectorI6EntityNS_9allocatorIS1_EEED2B8ue170006Ev, symObjAddr: 0x4E3C, symBinAddr: 0x100008480, symSize: 0x3C }
  - { offsetInCU: 0x11661, offset: 0x11661, size: 0x8, addend: 0x0, symName: __ZNSt3__16vectorI6EntityNS_9allocatorIS1_EEE16__destroy_vectorC1B8ue170006ERS4_, symObjAddr: 0x4E78, symBinAddr: 0x1000084BC, symSize: 0x34 }
  - { offsetInCU: 0x11699, offset: 0x11699, size: 0x8, addend: 0x0, symName: __ZNSt3__16vectorI6EntityNS_9allocatorIS1_EEE16__destroy_vectorclB8ue170006Ev, symObjAddr: 0x4EAC, symBinAddr: 0x1000084F0, symSize: 0x90 }
  - { offsetInCU: 0x116BE, offset: 0x116BE, size: 0x8, addend: 0x0, symName: __ZNSt3__16vectorI6EntityNS_9allocatorIS1_EEE16__destroy_vectorC2B8ue170006ERS4_, symObjAddr: 0x4F3C, symBinAddr: 0x100008580, symSize: 0x20 }
  - { offsetInCU: 0x116F6, offset: 0x116F6, size: 0x8, addend: 0x0, symName: __ZNSt3__16vectorI6EntityNS_9allocatorIS1_EEE7__clearB8ue170006Ev, symObjAddr: 0x4F5C, symBinAddr: 0x1000085A0, symSize: 0x28 }
  - { offsetInCU: 0x1171B, offset: 0x1171B, size: 0x8, addend: 0x0, symName: __ZNKSt3__16vectorI6EntityNS_9allocatorIS1_EEE17__annotate_deleteB8ue170006Ev, symObjAddr: 0x4F84, symBinAddr: 0x1000085C8, symSize: 0xD4 }
  - { offsetInCU: 0x11740, offset: 0x11740, size: 0x8, addend: 0x0, symName: __ZNSt3__116allocator_traitsINS_9allocatorI6EntityEEE10deallocateB8ue170006ERS3_PS2_m, symObjAddr: 0x5058, symBinAddr: 0x10000869C, symSize: 0x34 }
  - { offsetInCU: 0x11782, offset: 0x11782, size: 0x8, addend: 0x0, symName: __ZNSt3__16vectorI6EntityNS_9allocatorIS1_EEE7__allocB8ue170006Ev, symObjAddr: 0x508C, symBinAddr: 0x1000086D0, symSize: 0x28 }
  - { offsetInCU: 0x117A7, offset: 0x117A7, size: 0x8, addend: 0x0, symName: __ZNKSt3__16vectorI6EntityNS_9allocatorIS1_EEE8capacityB8ue170006Ev, symObjAddr: 0x50B4, symBinAddr: 0x1000086F8, symSize: 0x40 }
  - { offsetInCU: 0x117CC, offset: 0x117CC, size: 0x8, addend: 0x0, symName: __ZNSt3__16vectorI6EntityNS_9allocatorIS1_EEE22__base_destruct_at_endB8ue170006EPS1_, symObjAddr: 0x50F4, symBinAddr: 0x100008738, symSize: 0xA0 }
  - { offsetInCU: 0x1180F, offset: 0x1180F, size: 0x8, addend: 0x0, symName: __ZNSt3__116allocator_traitsINS_9allocatorI6EntityEEE7destroyB8ue170006IS2_vEEvRS3_PT_, symObjAddr: 0x5194, symBinAddr: 0x1000087D8, symSize: 0x2C }
  - { offsetInCU: 0x1184C, offset: 0x1184C, size: 0x8, addend: 0x0, symName: __ZNSt3__19allocatorI6EntityE7destroyB8ue170006EPS1_, symObjAddr: 0x51D4, symBinAddr: 0x100008818, symSize: 0x28 }
  - { offsetInCU: 0x1187F, offset: 0x1187F, size: 0x8, addend: 0x0, symName: __ZNKSt3__16vectorI6EntityNS_9allocatorIS1_EEE31__annotate_contiguous_containerB8ue170006EPKvS6_S6_S6_, symObjAddr: 0x51FC, symBinAddr: 0x100008840, symSize: 0x20 }
  - { offsetInCU: 0x118D4, offset: 0x118D4, size: 0x8, addend: 0x0, symName: __ZNKSt3__16vectorI6EntityNS_9allocatorIS1_EEE4dataB8ue170006Ev, symObjAddr: 0x521C, symBinAddr: 0x100008860, symSize: 0x28 }
  - { offsetInCU: 0x118F9, offset: 0x118F9, size: 0x8, addend: 0x0, symName: __ZNKSt3__16vectorI6EntityNS_9allocatorIS1_EEE4sizeB8ue170006Ev, symObjAddr: 0x5244, symBinAddr: 0x100008888, symSize: 0x28 }
  - { offsetInCU: 0x1191E, offset: 0x1191E, size: 0x8, addend: 0x0, symName: __ZNSt3__19allocatorI6EntityE10deallocateB8ue170006EPS1_m, symObjAddr: 0x526C, symBinAddr: 0x1000088B0, symSize: 0x74 }
  - { offsetInCU: 0x1195F, offset: 0x1195F, size: 0x8, addend: 0x0, symName: __ZNSt3__117__compressed_pairIP6EntityNS_9allocatorIS1_EEE6secondB8ue170006Ev, symObjAddr: 0x52E0, symBinAddr: 0x100008924, symSize: 0x24 }
  - { offsetInCU: 0x11984, offset: 0x11984, size: 0x8, addend: 0x0, symName: __ZNSt3__122__compressed_pair_elemINS_9allocatorI6EntityEELi1ELb1EE5__getB8ue170006Ev, symObjAddr: 0x5304, symBinAddr: 0x100008948, symSize: 0x14 }
  - { offsetInCU: 0x119A9, offset: 0x119A9, size: 0x8, addend: 0x0, symName: __ZNKSt3__16vectorI6EntityNS_9allocatorIS1_EEE9__end_capB8ue170006Ev, symObjAddr: 0x5318, symBinAddr: 0x10000895C, symSize: 0x28 }
  - { offsetInCU: 0x119CE, offset: 0x119CE, size: 0x8, addend: 0x0, symName: __ZNKSt3__117__compressed_pairIP6EntityNS_9allocatorIS1_EEE5firstB8ue170006Ev, symObjAddr: 0x5340, symBinAddr: 0x100008984, symSize: 0x24 }
  - { offsetInCU: 0x119F3, offset: 0x119F3, size: 0x8, addend: 0x0, symName: __ZNKSt3__122__compressed_pair_elemIP6EntityLi0ELb0EE5__getB8ue170006Ev, symObjAddr: 0x5364, symBinAddr: 0x1000089A8, symSize: 0x14 }
  - { offsetInCU: 0x11A18, offset: 0x11A18, size: 0x8, addend: 0x0, symName: __ZNSt3__16vectorI6EntityNS_9allocatorIS1_EEE11__make_iterB8ue170006EPS1_, symObjAddr: 0x5378, symBinAddr: 0x1000089BC, symSize: 0x30 }
  - { offsetInCU: 0x11A4C, offset: 0x11A4C, size: 0x8, addend: 0x0, symName: __ZNSt3__111__wrap_iterIP6EntityEC1B8ue170006ES2_, symObjAddr: 0x53A8, symBinAddr: 0x1000089EC, symSize: 0x34 }
  - { offsetInCU: 0x11A83, offset: 0x11A83, size: 0x8, addend: 0x0, symName: __ZNSt3__111__wrap_iterIP6EntityEC2B8ue170006ES2_, symObjAddr: 0x53DC, symBinAddr: 0x100008A20, symSize: 0x20 }
  - { offsetInCU: 0x11ABA, offset: 0x11ABA, size: 0x8, addend: 0x0, symName: __ZNSt3__16vectorI6EntityNS_9allocatorIS1_EEE9__end_capB8ue170006Ev, symObjAddr: 0x5444, symBinAddr: 0x100008A88, symSize: 0x28 }
  - { offsetInCU: 0x11ADF, offset: 0x11ADF, size: 0x8, addend: 0x0, symName: __ZNSt3__16vectorI6EntityNS_9allocatorIS1_EEE22__construct_one_at_endB8ue170006IJRKS1_EEEvDpOT_, symObjAddr: 0x546C, symBinAddr: 0x100008AB0, symSize: 0x98 }
  - { offsetInCU: 0x11B2C, offset: 0x11B2C, size: 0x8, addend: 0x0, symName: __ZNSt3__16vectorI6EntityNS_9allocatorIS1_EEE12__move_rangeEPS1_S5_S5_, symObjAddr: 0x5504, symBinAddr: 0x100008B48, symSize: 0x144 }
  - { offsetInCU: 0x11BE9, offset: 0x11BE9, size: 0x8, addend: 0x0, symName: __ZNSt3__114pointer_traitsIPK6EntityE10pointer_toB8ue170006ERS2_, symObjAddr: 0x5648, symBinAddr: 0x100008C8C, symSize: 0x14 }
  - { offsetInCU: 0x11C0C, offset: 0x11C0C, size: 0x8, addend: 0x0, symName: __ZN6EntityaSERKS_, symObjAddr: 0x565C, symBinAddr: 0x100008CA0, symSize: 0x48 }
  - { offsetInCU: 0x11C3B, offset: 0x11C3B, size: 0x8, addend: 0x0, symName: __ZNKSt3__16vectorI6EntityNS_9allocatorIS1_EEE11__recommendB8ue170006Em, symObjAddr: 0x56A4, symBinAddr: 0x100008CE8, symSize: 0xB4 }
  - { offsetInCU: 0x11C8F, offset: 0x11C8F, size: 0x8, addend: 0x0, symName: __ZNSt3__114__split_bufferI6EntityRNS_9allocatorIS1_EEEC1EmmS4_, symObjAddr: 0x5758, symBinAddr: 0x100008D9C, symSize: 0x44 }
  - { offsetInCU: 0x11CE3, offset: 0x11CE3, size: 0x8, addend: 0x0, symName: __ZNSt3__114__split_bufferI6EntityRNS_9allocatorIS1_EEE9push_backB8ue170006ERKS1_, symObjAddr: 0x579C, symBinAddr: 0x100008DE0, symSize: 0x270 }
  - { offsetInCU: 0x11D5B, offset: 0x11D5B, size: 0x8, addend: 0x0, symName: __ZNSt3__114__split_bufferI6EntityRNS_9allocatorIS1_EEED1Ev, symObjAddr: 0x5B58, symBinAddr: 0x10000919C, symSize: 0x2C }
  - { offsetInCU: 0x11D86, offset: 0x11D86, size: 0x8, addend: 0x0, symName: __ZNKSt3__111__wrap_iterIP6EntityE4baseB8ue170006Ev, symObjAddr: 0x5B84, symBinAddr: 0x1000091C8, symSize: 0x18 }
  - { offsetInCU: 0x11DAB, offset: 0x11DAB, size: 0x8, addend: 0x0, symName: __ZNSt3__117__compressed_pairIP6EntityNS_9allocatorIS1_EEE5firstB8ue170006Ev, symObjAddr: 0x5B9C, symBinAddr: 0x1000091E0, symSize: 0x24 }
  - { offsetInCU: 0x11DD0, offset: 0x11DD0, size: 0x8, addend: 0x0, symName: __ZNSt3__122__compressed_pair_elemIP6EntityLi0ELb0EE5__getB8ue170006Ev, symObjAddr: 0x5BC0, symBinAddr: 0x100009204, symSize: 0x14 }
  - { offsetInCU: 0x11E0E, offset: 0x11E0E, size: 0x8, addend: 0x0, symName: __ZNSt3__16vectorI6EntityNS_9allocatorIS1_EEE21_ConstructTransactionC1B8ue170006ERS4_m, symObjAddr: 0x5BD4, symBinAddr: 0x100009218, symSize: 0x3C }
  - { offsetInCU: 0x11E55, offset: 0x11E55, size: 0x8, addend: 0x0, symName: __ZNSt3__116allocator_traitsINS_9allocatorI6EntityEEE9constructB8ue170006IS2_JRKS2_EvEEvRS3_PT_DpOT0_, symObjAddr: 0x5C10, symBinAddr: 0x100009254, symSize: 0x34 }
  - { offsetInCU: 0x11EAC, offset: 0x11EAC, size: 0x8, addend: 0x0, symName: __ZNSt3__16vectorI6EntityNS_9allocatorIS1_EEE21_ConstructTransactionD1B8ue170006Ev, symObjAddr: 0x5C44, symBinAddr: 0x100009288, symSize: 0x2C }
  - { offsetInCU: 0x11ED5, offset: 0x11ED5, size: 0x8, addend: 0x0, symName: __ZNSt3__16vectorI6EntityNS_9allocatorIS1_EEE21_ConstructTransactionC2B8ue170006ERS4_m, symObjAddr: 0x5C70, symBinAddr: 0x1000092B4, symSize: 0x4C }
  - { offsetInCU: 0x11F1C, offset: 0x11F1C, size: 0x8, addend: 0x0, symName: __ZNSt3__19allocatorI6EntityE9constructB8ue170006IS1_JRKS1_EEEvPT_DpOT0_, symObjAddr: 0x5CBC, symBinAddr: 0x100009300, symSize: 0x30 }
  - { offsetInCU: 0x11F71, offset: 0x11F71, size: 0x8, addend: 0x0, symName: __ZN6EntityC1ERKS_, symObjAddr: 0x5CEC, symBinAddr: 0x100009330, symSize: 0x34 }
  - { offsetInCU: 0x11FA5, offset: 0x11FA5, size: 0x8, addend: 0x0, symName: __ZN6EntityC2ERKS_, symObjAddr: 0x5D20, symBinAddr: 0x100009364, symSize: 0x48 }
  - { offsetInCU: 0x11FD9, offset: 0x11FD9, size: 0x8, addend: 0x0, symName: __ZNSt3__16vectorI6EntityNS_9allocatorIS1_EEE21_ConstructTransactionD2B8ue170006Ev, symObjAddr: 0x5D68, symBinAddr: 0x1000093AC, symSize: 0x20 }
  - { offsetInCU: 0x12002, offset: 0x12002, size: 0x8, addend: 0x0, symName: __ZNSt3__116allocator_traitsINS_9allocatorI6EntityEEE9constructB8ue170006IS2_JS2_EvEEvRS3_PT_DpOT0_, symObjAddr: 0x5D88, symBinAddr: 0x1000093CC, symSize: 0x34 }
  - { offsetInCU: 0x12059, offset: 0x12059, size: 0x8, addend: 0x0, symName: __ZNSt3__19allocatorI6EntityE9constructB8ue170006IS1_JS1_EEEvPT_DpOT0_, symObjAddr: 0x5DFC, symBinAddr: 0x100009440, symSize: 0x30 }
  - { offsetInCU: 0x120D1, offset: 0x120D1, size: 0x8, addend: 0x0, symName: __ZNKSt3__120__move_backward_loopINS_17_ClassicAlgPolicyEEclB8ue170006IP6EntityS5_S5_EENS_4pairIT_T1_EES7_T0_S8_, symObjAddr: 0x5FC8, symBinAddr: 0x10000960C, symSize: 0xA4 }
  - { offsetInCU: 0x12157, offset: 0x12157, size: 0x8, addend: 0x0, symName: __ZNSt3__18_IterOpsINS_17_ClassicAlgPolicyEE4nextB8ue170006IP6EntityEET_S6_S6_, symObjAddr: 0x6144, symBinAddr: 0x100009788, symSize: 0x18 }
  - { offsetInCU: 0x1218D, offset: 0x1218D, size: 0x8, addend: 0x0, symName: __ZNSt3__18_IterOpsINS_17_ClassicAlgPolicyEE11__iter_moveB8ue170006IRP6EntityEENS_9enable_ifIXsr12is_referenceIDTdeclsr3stdE7declvalIRT_EEEEE5valueEDTclsr3stdE4movedeclsr3stdE7declvalIS9_EEEEE4typeEOS8_, symObjAddr: 0x615C, symBinAddr: 0x1000097A0, symSize: 0x28 }
  - { offsetInCU: 0x121B9, offset: 0x121B9, size: 0x8, addend: 0x0, symName: __ZNSt3__18_IterOpsINS_17_ClassicAlgPolicyEE25__validate_iter_referenceB8ue170006IRP6EntityEEvv, symObjAddr: 0x6184, symBinAddr: 0x1000097C8, symSize: 0x4 }
  - { offsetInCU: 0x121D7, offset: 0x121D7, size: 0x8, addend: 0x0, symName: __ZNSt3__118__unwrap_iter_implIP6EntityLb1EE8__unwrapB8ue170006ES2_, symObjAddr: 0x6188, symBinAddr: 0x1000097CC, symSize: 0x24 }
  - { offsetInCU: 0x121FA, offset: 0x121FA, size: 0x8, addend: 0x0, symName: __ZNSt3__14pairIP6EntityS2_EC1B8ue170006ERKS2_S5_, symObjAddr: 0x61AC, symBinAddr: 0x1000097F0, symSize: 0x3C }
  - { offsetInCU: 0x1223F, offset: 0x1223F, size: 0x8, addend: 0x0, symName: __ZNSt3__14pairIP6EntityS2_EC2B8ue170006ERKS2_S5_, symObjAddr: 0x61E8, symBinAddr: 0x10000982C, symSize: 0x34 }
  - { offsetInCU: 0x12284, offset: 0x12284, size: 0x8, addend: 0x0, symName: __ZNSt3__118__unwrap_iter_implIP6EntityLb1EE8__rewrapB8ue170006ES2_S2_, symObjAddr: 0x621C, symBinAddr: 0x100009860, symSize: 0x58 }
  - { offsetInCU: 0x122B4, offset: 0x122B4, size: 0x8, addend: 0x0, symName: __ZNKSt3__16vectorI6EntityNS_9allocatorIS1_EEE8max_sizeEv, symObjAddr: 0x6274, symBinAddr: 0x1000098B8, symSize: 0x74 }
  - { offsetInCU: 0x122DB, offset: 0x122DB, size: 0x8, addend: 0x0, symName: __ZNKSt3__16vectorI6EntityNS_9allocatorIS1_EEE20__throw_length_errorB8ue170006Ev, symObjAddr: 0x62E8, symBinAddr: 0x10000992C, symSize: 0x1C }
  - { offsetInCU: 0x1230A, offset: 0x1230A, size: 0x8, addend: 0x0, symName: __ZNSt3__116allocator_traitsINS_9allocatorI6EntityEEE8max_sizeB8ue170006IS3_vEEmRKS3_, symObjAddr: 0x6330, symBinAddr: 0x100009974, symSize: 0x24 }
  - { offsetInCU: 0x12338, offset: 0x12338, size: 0x8, addend: 0x0, symName: __ZNKSt3__16vectorI6EntityNS_9allocatorIS1_EEE7__allocB8ue170006Ev, symObjAddr: 0x6354, symBinAddr: 0x100009998, symSize: 0x28 }
  - { offsetInCU: 0x1235D, offset: 0x1235D, size: 0x8, addend: 0x0, symName: __ZNKSt3__19allocatorI6EntityE8max_sizeB8ue170006Ev, symObjAddr: 0x637C, symBinAddr: 0x1000099C0, symSize: 0x18 }
  - { offsetInCU: 0x12382, offset: 0x12382, size: 0x8, addend: 0x0, symName: __ZNKSt3__117__compressed_pairIP6EntityNS_9allocatorIS1_EEE6secondB8ue170006Ev, symObjAddr: 0x6394, symBinAddr: 0x1000099D8, symSize: 0x24 }
  - { offsetInCU: 0x123A7, offset: 0x123A7, size: 0x8, addend: 0x0, symName: __ZNKSt3__122__compressed_pair_elemINS_9allocatorI6EntityEELi1ELb1EE5__getB8ue170006Ev, symObjAddr: 0x63B8, symBinAddr: 0x1000099FC, symSize: 0x14 }
  - { offsetInCU: 0x123CC, offset: 0x123CC, size: 0x8, addend: 0x0, symName: __ZNSt3__114__split_bufferI6EntityRNS_9allocatorIS1_EEEC2EmmS4_, symObjAddr: 0x6420, symBinAddr: 0x100009A64, symSize: 0xE0 }
  - { offsetInCU: 0x1243F, offset: 0x1243F, size: 0x8, addend: 0x0, symName: __ZNSt3__117__compressed_pairIP6EntityRNS_9allocatorIS1_EEEC1B8ue170006IDnS5_EEOT_OT0_, symObjAddr: 0x6500, symBinAddr: 0x100009B44, symSize: 0x3C }
  - { offsetInCU: 0x12496, offset: 0x12496, size: 0x8, addend: 0x0, symName: __ZNSt3__114__split_bufferI6EntityRNS_9allocatorIS1_EEE7__allocB8ue170006Ev, symObjAddr: 0x657C, symBinAddr: 0x100009BC0, symSize: 0x28 }
  - { offsetInCU: 0x124BB, offset: 0x124BB, size: 0x8, addend: 0x0, symName: __ZNSt3__114__split_bufferI6EntityRNS_9allocatorIS1_EEE9__end_capB8ue170006Ev, symObjAddr: 0x65A4, symBinAddr: 0x100009BE8, symSize: 0x28 }
  - { offsetInCU: 0x124E0, offset: 0x124E0, size: 0x8, addend: 0x0, symName: __ZNSt3__117__compressed_pairIP6EntityRNS_9allocatorIS1_EEEC2B8ue170006IDnS5_EEOT_OT0_, symObjAddr: 0x65CC, symBinAddr: 0x100009C10, symSize: 0x48 }
  - { offsetInCU: 0x12537, offset: 0x12537, size: 0x8, addend: 0x0, symName: __ZNSt3__122__compressed_pair_elemIRNS_9allocatorI6EntityEELi1ELb0EEC2B8ue170006IS4_vEEOT_, symObjAddr: 0x6614, symBinAddr: 0x100009C58, symSize: 0x20 }
  - { offsetInCU: 0x12578, offset: 0x12578, size: 0x8, addend: 0x0, symName: __ZNSt3__19allocatorI6EntityE8allocateB8ue170006Em, symObjAddr: 0x6634, symBinAddr: 0x100009C78, symSize: 0x8C }
  - { offsetInCU: 0x125AB, offset: 0x125AB, size: 0x8, addend: 0x0, symName: __ZNSt3__117__compressed_pairIP6EntityRNS_9allocatorIS1_EEE6secondB8ue170006Ev, symObjAddr: 0x66C0, symBinAddr: 0x100009D04, symSize: 0x28 }
  - { offsetInCU: 0x125D0, offset: 0x125D0, size: 0x8, addend: 0x0, symName: __ZNSt3__122__compressed_pair_elemIRNS_9allocatorI6EntityEELi1ELb0EE5__getB8ue170006Ev, symObjAddr: 0x66E8, symBinAddr: 0x100009D2C, symSize: 0x18 }
  - { offsetInCU: 0x125F5, offset: 0x125F5, size: 0x8, addend: 0x0, symName: __ZNSt3__117__compressed_pairIP6EntityRNS_9allocatorIS1_EEE5firstB8ue170006Ev, symObjAddr: 0x6700, symBinAddr: 0x100009D44, symSize: 0x24 }
  - { offsetInCU: 0x12619, offset: 0x12619, size: 0x8, addend: 0x0, symName: __ZNSt3__114__split_bufferI6EntityRNS_9allocatorIS1_EEE18__construct_at_endINS_13move_iteratorIPS1_EEEENS_9enable_ifIXsr31__has_forward_iterator_categoryIT_EE5valueEvE4typeESB_SB_, symObjAddr: 0x6764, symBinAddr: 0x100009DA8, symSize: 0x60 }
  - { offsetInCU: 0x12665, offset: 0x12665, size: 0x8, addend: 0x0, symName: __ZNSt3__113move_iteratorIP6EntityEC1B8ue170006ES2_, symObjAddr: 0x67C4, symBinAddr: 0x100009E08, symSize: 0x34 }
  - { offsetInCU: 0x126A6, offset: 0x126A6, size: 0x8, addend: 0x0, symName: __ZNKSt3__111__move_loopINS_17_ClassicAlgPolicyEEclB8ue170006IP6EntityS5_S5_EENS_4pairIT_T1_EES7_T0_S8_, symObjAddr: 0x6970, symBinAddr: 0x100009FB4, symSize: 0x90 }
  - { offsetInCU: 0x1270F, offset: 0x1270F, size: 0x8, addend: 0x0, symName: __ZNSt3__114__split_bufferI6EntityRNS_9allocatorIS1_EEE28__construct_at_end_with_sizeINS_13move_iteratorIPS1_EEEEvT_m, symObjAddr: 0x6A00, symBinAddr: 0x10000A044, symSize: 0xE4 }
  - { offsetInCU: 0x12774, offset: 0x12774, size: 0x8, addend: 0x0, symName: __ZNSt3__114__split_bufferI6EntityRNS_9allocatorIS1_EEE21_ConstructTransactionC1B8ue170006EPPS1_m, symObjAddr: 0x6B20, symBinAddr: 0x10000A164, symSize: 0x3C }
  - { offsetInCU: 0x127B9, offset: 0x127B9, size: 0x8, addend: 0x0, symName: __ZNKSt3__113move_iteratorIP6EntityEdeB8ue170006Ev, symObjAddr: 0x6B5C, symBinAddr: 0x10000A1A0, symSize: 0x18 }
  - { offsetInCU: 0x127DE, offset: 0x127DE, size: 0x8, addend: 0x0, symName: __ZNSt3__113move_iteratorIP6EntityEppB8ue170006Ev, symObjAddr: 0x6B74, symBinAddr: 0x10000A1B8, symSize: 0x20 }
  - { offsetInCU: 0x12803, offset: 0x12803, size: 0x8, addend: 0x0, symName: __ZNSt3__114__split_bufferI6EntityRNS_9allocatorIS1_EEE21_ConstructTransactionD1B8ue170006Ev, symObjAddr: 0x6B94, symBinAddr: 0x10000A1D8, symSize: 0x2C }
  - { offsetInCU: 0x1282C, offset: 0x1282C, size: 0x8, addend: 0x0, symName: __ZNSt3__114__split_bufferI6EntityRNS_9allocatorIS1_EEE21_ConstructTransactionC2B8ue170006EPPS1_m, symObjAddr: 0x6BC0, symBinAddr: 0x10000A204, symSize: 0x4C }
  - { offsetInCU: 0x12871, offset: 0x12871, size: 0x8, addend: 0x0, symName: __ZNSt3__114__split_bufferI6EntityRNS_9allocatorIS1_EEE21_ConstructTransactionD2B8ue170006Ev, symObjAddr: 0x6C0C, symBinAddr: 0x10000A250, symSize: 0x20 }
  - { offsetInCU: 0x1289A, offset: 0x1289A, size: 0x8, addend: 0x0, symName: __ZNKSt3__113move_iteratorIP6EntityE4baseB8ue170006Ev, symObjAddr: 0x6CA4, symBinAddr: 0x10000A2E8, symSize: 0x18 }
  - { offsetInCU: 0x128BF, offset: 0x128BF, size: 0x8, addend: 0x0, symName: __ZNSt3__113move_iteratorIP6EntityEC2B8ue170006ES2_, symObjAddr: 0x6CBC, symBinAddr: 0x10000A300, symSize: 0x20 }
  - { offsetInCU: 0x128F6, offset: 0x128F6, size: 0x8, addend: 0x0, symName: __ZNSt3__116reverse_iteratorIP6EntityEC1B8ue170006ES2_, symObjAddr: 0x6E10, symBinAddr: 0x10000A454, symSize: 0x34 }
  - { offsetInCU: 0x1292D, offset: 0x1292D, size: 0x8, addend: 0x0, symName: __ZNKSt3__116reverse_iteratorIP6EntityE4baseB8ue170006Ev, symObjAddr: 0x6E44, symBinAddr: 0x10000A488, symSize: 0x18 }
  - { offsetInCU: 0x12952, offset: 0x12952, size: 0x8, addend: 0x0, symName: __ZNKSt3__16vectorI6EntityNS_9allocatorIS1_EEE14__annotate_newB8ue170006Em, symObjAddr: 0x6F58, symBinAddr: 0x10000A59C, symSize: 0xC8 }
  - { offsetInCU: 0x12986, offset: 0x12986, size: 0x8, addend: 0x0, symName: __ZNSt3__129_AllocatorDestroyRangeReverseINS_9allocatorI6EntityEENS_16reverse_iteratorIPS2_EEEC1B8ue170006ERS3_RS6_S9_, symObjAddr: 0x706C, symBinAddr: 0x10000A6B0, symSize: 0x44 }
  - { offsetInCU: 0x129DC, offset: 0x129DC, size: 0x8, addend: 0x0, symName: __ZNKSt3__116reverse_iteratorIP6EntityEdeB8ue170006Ev, symObjAddr: 0x711C, symBinAddr: 0x10000A760, symSize: 0x28 }
  - { offsetInCU: 0x12A0F, offset: 0x12A0F, size: 0x8, addend: 0x0, symName: __ZNSt3__116reverse_iteratorIP6EntityEppB8ue170006Ev, symObjAddr: 0x7144, symBinAddr: 0x10000A788, symSize: 0x20 }
  - { offsetInCU: 0x12A34, offset: 0x12A34, size: 0x8, addend: 0x0, symName: __ZNSt3__128__exception_guard_exceptionsINS_29_AllocatorDestroyRangeReverseINS_9allocatorI6EntityEENS_16reverse_iteratorIPS3_EEEEE10__completeB8ue170006Ev, symObjAddr: 0x7164, symBinAddr: 0x10000A7A8, symSize: 0x1C }
  - { offsetInCU: 0x12A59, offset: 0x12A59, size: 0x8, addend: 0x0, symName: __ZNSt3__128__exception_guard_exceptionsINS_29_AllocatorDestroyRangeReverseINS_9allocatorI6EntityEENS_16reverse_iteratorIPS3_EEEEED1B8ue170006Ev, symObjAddr: 0x7180, symBinAddr: 0x10000A7C4, symSize: 0x2C }
  - { offsetInCU: 0x12A82, offset: 0x12A82, size: 0x8, addend: 0x0, symName: __ZNSt3__128__exception_guard_exceptionsINS_29_AllocatorDestroyRangeReverseINS_9allocatorI6EntityEENS_16reverse_iteratorIPS3_EEEEEC1B8ue170006ES8_, symObjAddr: 0x71AC, symBinAddr: 0x10000A7F0, symSize: 0x34 }
  - { offsetInCU: 0x12ABA, offset: 0x12ABA, size: 0x8, addend: 0x0, symName: __ZNSt3__128__exception_guard_exceptionsINS_29_AllocatorDestroyRangeReverseINS_9allocatorI6EntityEENS_16reverse_iteratorIPS3_EEEEEC2B8ue170006ES8_, symObjAddr: 0x71E0, symBinAddr: 0x10000A824, symSize: 0x30 }
  - { offsetInCU: 0x12AF2, offset: 0x12AF2, size: 0x8, addend: 0x0, symName: __ZNSt3__129_AllocatorDestroyRangeReverseINS_9allocatorI6EntityEENS_16reverse_iteratorIPS2_EEEC2B8ue170006ERS3_RS6_S9_, symObjAddr: 0x7210, symBinAddr: 0x10000A854, symSize: 0x38 }
  - { offsetInCU: 0x12B4D, offset: 0x12B4D, size: 0x8, addend: 0x0, symName: __ZNSt3__119__to_address_helperINS_16reverse_iteratorIP6EntityEEvE6__callB8ue170006ERKS4_, symObjAddr: 0x7248, symBinAddr: 0x10000A88C, symSize: 0x4C }
  - { offsetInCU: 0x12B70, offset: 0x12B70, size: 0x8, addend: 0x0, symName: __ZNKSt3__116reverse_iteratorIP6EntityEptB8ue170006Ev, symObjAddr: 0x7294, symBinAddr: 0x10000A8D8, symSize: 0x24 }
  - { offsetInCU: 0x12B95, offset: 0x12B95, size: 0x8, addend: 0x0, symName: __ZNSt3__128__exception_guard_exceptionsINS_29_AllocatorDestroyRangeReverseINS_9allocatorI6EntityEENS_16reverse_iteratorIPS3_EEEEED2B8ue170006Ev, symObjAddr: 0x72B8, symBinAddr: 0x10000A8FC, symSize: 0x48 }
  - { offsetInCU: 0x12BBE, offset: 0x12BBE, size: 0x8, addend: 0x0, symName: __ZNKSt3__129_AllocatorDestroyRangeReverseINS_9allocatorI6EntityEENS_16reverse_iteratorIPS2_EEEclB8ue170006Ev, symObjAddr: 0x7300, symBinAddr: 0x10000A944, symSize: 0xB4 }
  - { offsetInCU: 0x12BE4, offset: 0x12BE4, size: 0x8, addend: 0x0, symName: __ZNSt3__116reverse_iteratorINS0_IP6EntityEEEC1B8ue170006ES3_, symObjAddr: 0x7424, symBinAddr: 0x10000AA68, symSize: 0x3C }
  - { offsetInCU: 0x12C1B, offset: 0x12C1B, size: 0x8, addend: 0x0, symName: __ZNSt3__116reverse_iteratorINS0_IP6EntityEEEppB8ue170006Ev, symObjAddr: 0x74E4, symBinAddr: 0x10000AB28, symSize: 0x30 }
  - { offsetInCU: 0x12C40, offset: 0x12C40, size: 0x8, addend: 0x0, symName: __ZNKSt3__116reverse_iteratorINS0_IP6EntityEEE4baseB8ue170006Ev, symObjAddr: 0x7514, symBinAddr: 0x10000AB58, symSize: 0x24 }
  - { offsetInCU: 0x12C6A, offset: 0x12C6A, size: 0x8, addend: 0x0, symName: __ZNSt3__119__to_address_helperINS_16reverse_iteratorINS1_IP6EntityEEEEvE6__callB8ue170006ERKS5_, symObjAddr: 0x7538, symBinAddr: 0x10000AB7C, symSize: 0x4C }
  - { offsetInCU: 0x12C8D, offset: 0x12C8D, size: 0x8, addend: 0x0, symName: __ZNKSt3__116reverse_iteratorINS0_IP6EntityEEEptB8ue170006Ev, symObjAddr: 0x7584, symBinAddr: 0x10000ABC8, symSize: 0x24 }
  - { offsetInCU: 0x12CB2, offset: 0x12CB2, size: 0x8, addend: 0x0, symName: __ZNKSt3__116reverse_iteratorINS0_IP6EntityEEEdeB8ue170006Ev, symObjAddr: 0x75A8, symBinAddr: 0x10000ABEC, symSize: 0x34 }
  - { offsetInCU: 0x12CE5, offset: 0x12CE5, size: 0x8, addend: 0x0, symName: __ZNSt3__116reverse_iteratorIP6EntityEmmB8ue170006Ev, symObjAddr: 0x75DC, symBinAddr: 0x10000AC20, symSize: 0x20 }
  - { offsetInCU: 0x12D0A, offset: 0x12D0A, size: 0x8, addend: 0x0, symName: __ZNSt3__116reverse_iteratorINS0_IP6EntityEEEC2B8ue170006ES3_, symObjAddr: 0x75FC, symBinAddr: 0x10000AC40, symSize: 0x2C }
  - { offsetInCU: 0x12D41, offset: 0x12D41, size: 0x8, addend: 0x0, symName: __ZNSt3__116reverse_iteratorIP6EntityEC2B8ue170006ES2_, symObjAddr: 0x7628, symBinAddr: 0x10000AC6C, symSize: 0x28 }
  - { offsetInCU: 0x12D78, offset: 0x12D78, size: 0x8, addend: 0x0, symName: __ZNSt3__129_AllocatorDestroyRangeReverseINS_9allocatorI6EntityEEPS2_EC1B8ue170006ERS3_RS4_S7_, symObjAddr: 0x769C, symBinAddr: 0x10000ACE0, symSize: 0x44 }
  - { offsetInCU: 0x12DCE, offset: 0x12DCE, size: 0x8, addend: 0x0, symName: __ZNSt3__128__exception_guard_exceptionsINS_29_AllocatorDestroyRangeReverseINS_9allocatorI6EntityEEPS3_EEE10__completeB8ue170006Ev, symObjAddr: 0x76E0, symBinAddr: 0x10000AD24, symSize: 0x1C }
  - { offsetInCU: 0x12DF3, offset: 0x12DF3, size: 0x8, addend: 0x0, symName: __ZNSt3__128__exception_guard_exceptionsINS_29_AllocatorDestroyRangeReverseINS_9allocatorI6EntityEEPS3_EEED1B8ue170006Ev, symObjAddr: 0x76FC, symBinAddr: 0x10000AD40, symSize: 0x2C }
  - { offsetInCU: 0x12E1C, offset: 0x12E1C, size: 0x8, addend: 0x0, symName: __ZNSt3__128__exception_guard_exceptionsINS_29_AllocatorDestroyRangeReverseINS_9allocatorI6EntityEEPS3_EEEC1B8ue170006ES6_, symObjAddr: 0x7728, symBinAddr: 0x10000AD6C, symSize: 0x34 }
  - { offsetInCU: 0x12E54, offset: 0x12E54, size: 0x8, addend: 0x0, symName: __ZNSt3__128__exception_guard_exceptionsINS_29_AllocatorDestroyRangeReverseINS_9allocatorI6EntityEEPS3_EEEC2B8ue170006ES6_, symObjAddr: 0x775C, symBinAddr: 0x10000ADA0, symSize: 0x30 }
  - { offsetInCU: 0x12E8C, offset: 0x12E8C, size: 0x8, addend: 0x0, symName: __ZNSt3__129_AllocatorDestroyRangeReverseINS_9allocatorI6EntityEEPS2_EC2B8ue170006ERS3_RS4_S7_, symObjAddr: 0x778C, symBinAddr: 0x10000ADD0, symSize: 0x38 }
  - { offsetInCU: 0x12EE2, offset: 0x12EE2, size: 0x8, addend: 0x0, symName: __ZNSt3__128__exception_guard_exceptionsINS_29_AllocatorDestroyRangeReverseINS_9allocatorI6EntityEEPS3_EEED2B8ue170006Ev, symObjAddr: 0x77C4, symBinAddr: 0x10000AE08, symSize: 0x48 }
  - { offsetInCU: 0x12F0B, offset: 0x12F0B, size: 0x8, addend: 0x0, symName: __ZNKSt3__129_AllocatorDestroyRangeReverseINS_9allocatorI6EntityEEPS2_EclB8ue170006Ev, symObjAddr: 0x780C, symBinAddr: 0x10000AE50, symSize: 0x68 }
  - { offsetInCU: 0x12F30, offset: 0x12F30, size: 0x8, addend: 0x0, symName: __ZNSt3__114__split_bufferI6EntityRNS_9allocatorIS1_EEED2Ev, symObjAddr: 0x78E4, symBinAddr: 0x10000AF28, symSize: 0x80 }
  - { offsetInCU: 0x12F5B, offset: 0x12F5B, size: 0x8, addend: 0x0, symName: __ZNSt3__114__split_bufferI6EntityRNS_9allocatorIS1_EEE5clearB8ue170006Ev, symObjAddr: 0x7964, symBinAddr: 0x10000AFA8, symSize: 0x28 }
  - { offsetInCU: 0x12F80, offset: 0x12F80, size: 0x8, addend: 0x0, symName: __ZNKSt3__114__split_bufferI6EntityRNS_9allocatorIS1_EEE8capacityB8ue170006Ev, symObjAddr: 0x798C, symBinAddr: 0x10000AFD0, symSize: 0x40 }
  - { offsetInCU: 0x12FA5, offset: 0x12FA5, size: 0x8, addend: 0x0, symName: __ZNSt3__114__split_bufferI6EntityRNS_9allocatorIS1_EEE17__destruct_at_endB8ue170006EPS1_, symObjAddr: 0x79CC, symBinAddr: 0x10000B010, symSize: 0x2C }
  - { offsetInCU: 0x12FD7, offset: 0x12FD7, size: 0x8, addend: 0x0, symName: __ZNSt3__114__split_bufferI6EntityRNS_9allocatorIS1_EEE17__destruct_at_endB8ue170006EPS1_NS_17integral_constantIbLb0EEE, symObjAddr: 0x79F8, symBinAddr: 0x10000B03C, symSize: 0x94 }
  - { offsetInCU: 0x13016, offset: 0x13016, size: 0x8, addend: 0x0, symName: __ZNKSt3__114__split_bufferI6EntityRNS_9allocatorIS1_EEE9__end_capB8ue170006Ev, symObjAddr: 0x7A8C, symBinAddr: 0x10000B0D0, symSize: 0x28 }
  - { offsetInCU: 0x1303B, offset: 0x1303B, size: 0x8, addend: 0x0, symName: __ZNKSt3__117__compressed_pairIP6EntityRNS_9allocatorIS1_EEE5firstB8ue170006Ev, symObjAddr: 0x7AB4, symBinAddr: 0x10000B0F8, symSize: 0x24 }
  - { offsetInCU: 0x13060, offset: 0x13060, size: 0x8, addend: 0x0, symName: __ZNSt3__111__wrap_iterIPK6EntityEC2B8ue170006IPS1_EERKNS0_IT_EEPNS_9enable_ifIXsr14is_convertibleIS7_S3_EE5valueEvE4typeE, symObjAddr: 0x7AD8, symBinAddr: 0x10000B11C, symSize: 0x40 }
  - { offsetInCU: 0x130AA, offset: 0x130AA, size: 0x8, addend: 0x0, symName: __ZNSt3__111char_traitsIcE6lengthB8ue170006EPKc, symObjAddr: 0x7B18, symBinAddr: 0x10000B15C, symSize: 0x48 }
  - { offsetInCU: 0x48C6, offset: 0x17BD6, size: 0x8, addend: 0x0, symName: __ZN6Entity4MoveE5Point, symObjAddr: 0x0, symBinAddr: 0x10000B1C8, symSize: 0x60 }
  - { offsetInCU: 0x48FB, offset: 0x17C0B, size: 0x8, addend: 0x0, symName: __ZN5PointpLERKS_, symObjAddr: 0x12C, symBinAddr: 0x10000B228, symSize: 0x40 }
...
